
E:/CppProject/TinyOs/src/build/source/kernel/kernel.elf:     file format elf32-i386
E:/CppProject/TinyOs/src/build/source/kernel/kernel.elf
architecture: i386, flags 0x00000112:
EXEC_P, HAS_SYMS, D_PAGED
start address 0x00010000

Program Header:
    LOAD off    0x00001000 vaddr 0x00010000 paddr 0x00010000 align 2**12
         filesz 0x000067c0 memsz 0x000067c0 flags r-x
    LOAD off    0x00008000 vaddr 0x00017000 paddr 0x00017000 align 2**12
         filesz 0x0000009c memsz 0x000555e0 flags rw-
    LOAD off    0x00009000 vaddr 0x80000000 paddr 0x0006c5e0 align 2**12
         filesz 0x0000038d memsz 0x0000038d flags rwx

Sections:
Idx Name          Size      VMA       LMA       File off  Algn
  0 .text         00005b33  00010000  00010000  00001000  2**0
                  CONTENTS, ALLOC, LOAD, READONLY, CODE
  1 .rodata       00000c80  00015b40  00015b40  00006b40  2**5
                  CONTENTS, ALLOC, LOAD, READONLY, DATA
  2 .data         0000009c  00017000  00017000  00008000  2**5
                  CONTENTS, ALLOC, LOAD, DATA
  3 .bss          000545e0  00018000  00018000  0000809c  2**12
                  ALLOC
  4 .first_task   0000038d  80000000  0006c5e0  00009000  2**0
                  CONTENTS, ALLOC, LOAD, CODE
  5 .debug_line   000032af  00000000  00000000  0000938d  2**0
                  CONTENTS, READONLY, DEBUGGING
  6 .debug_info   0000be93  00000000  00000000  0000c63c  2**0
                  CONTENTS, READONLY, DEBUGGING
  7 .debug_abbrev 0000277a  00000000  00000000  000184cf  2**0
                  CONTENTS, READONLY, DEBUGGING
  8 .debug_aranges 000002e0  00000000  00000000  0001ac50  2**3
                  CONTENTS, READONLY, DEBUGGING
  9 .debug_ranges 000000a8  00000000  00000000  0001af30  2**0
                  CONTENTS, READONLY, DEBUGGING
 10 .debug_str    000021d1  00000000  00000000  0001afd8  2**0
                  CONTENTS, READONLY, DEBUGGING
 11 .comment      00000011  00000000  00000000  0001d1a9  2**0
                  CONTENTS, READONLY
 12 .debug_frame  00002260  00000000  00000000  0001d1bc  2**2
                  CONTENTS, READONLY, DEBUGGING
SYMBOL TABLE:
00010000 l    d  .text	00000000 .text
00015b40 l    d  .rodata	00000000 .rodata
00017000 l    d  .data	00000000 .data
00018000 l    d  .bss	00000000 .bss
80000000 l    d  .first_task	00000000 .first_task
00000000 l    d  .debug_line	00000000 .debug_line
00000000 l    d  .debug_info	00000000 .debug_info
00000000 l    d  .debug_abbrev	00000000 .debug_abbrev
00000000 l    d  .debug_aranges	00000000 .debug_aranges
00000000 l    d  .debug_ranges	00000000 .debug_ranges
00000000 l    d  .debug_str	00000000 .debug_str
00000000 l    d  .comment	00000000 .comment
00000000 l    d  .debug_frame	00000000 .debug_frame
00000000 l    df *ABS*	00000000 CMakeFiles/kernel.dir/init/start.S.obj
00010013 l       .text	00000000 gdt_reload
00000000 l    df *ABS*	00000000 memory.c
000102e5 l     F .text	00000011 read_cr0
000102f6 l     F .text	0000000c write_cr0
00010302 l     F .text	0000000c write_cr3
0001030e l     F .text	0000000c write_cr4
0001031a l     F .text	00000011 read_cr4
0001032b l     F .text	0000000d down2
00010338 l     F .text	00000017 up2
0001034f l     F .text	0000003e mmu_set_page_dir
0001038d l     F .text	0000000b pde_index
00010398 l     F .text	00000010 pte_index
000103a8 l     F .text	00000010 pde_paddr
000103b8 l     F .text	00000010 pte_paddr
000103c8 l     F .text	0000000f get_pte_perm
00018000 l     O .bss	00000028 paddr_alloc
00019000 l     O .bss	00001000 kernel_page_dir
000103d7 l     F .text	00000058 addr_alloc_init
0001042f l     F .text	00000067 addr_alloc_page
00010496 l     F .text	00000062 addr_free_page
000104f8 l     F .text	00000037 total_mem_size
00015c58 l     O .rodata	00000012 __func__.2528
00017000 l     O .data	00000050 kernel_map.2539
00015c6c l     O .rodata	0000000c __func__.2559
00010946 l     F .text	00000013 curr_page_dir
00015c78 l     O .rodata	00000011 __func__.2600
00015c8c l     O .rodata	00000009 __func__.2660
00000000 l    df *ABS*	00000000 syscall.c
00015ca0 l     O .rodata	00000194 sys_table
00000000 l    df *ABS*	00000000 task.c
00010eab l     F .text	00000011 read_cr0
00010ebc l     F .text	0000000c write_cr0
00010ec8 l     F .text	00000007 hlt
00010ecf l     F .text	00000017 write_tr
00010ee6 l     F .text	0000000c write_cr3
00010ef2 l     F .text	0000000c write_cr4
00010efe l     F .text	00000011 read_cr4
00010f0f l     F .text	0000001b list_node_init
00010f2a l     F .text	0000000b list_node_next
00010f35 l     F .text	0000000b list_count
00010f40 l     F .text	0000000a list_first
00010f4a l     F .text	0000003e mmu_set_page_dir
0001a000 l     O .bss	000005c0 task_manager
0001a5c0 l     O .bss	00001000 idle_task_stack
0001b5c0 l     O .bss	00016400 task_table
000319c0 l     O .bss	00000014 table_mutex
00010f88 l     F .text	0000019b tss_init
00015f78 l     O .rodata	0000000a __func__.2852
0001134d l     F .text	0000000a idle_task_entry
00015f84 l     O .rodata	00000010 __func__.2883
00011866 l     F .text	00000068 alloc_task
000118ce l     F .text	00000033 free_task
00011a72 l     F .text	000000fe load_phdr
00011b70 l     F .text	000001be load_elf_file
00011d2e l     F .text	000000f3 copy_args
00015f94 l     O .rodata	0000000a __func__.3005
00000000 l    df *ABS*	00000000 cpu.c
000122bc l     F .text	00000028 lgdt
000122e4 l     F .text	0000001a far_jump
000319e0 l     O .bss	00000800 gdt_table
000321e0 l     O .bss	00000014 mutex
00000000 l    df *ABS*	00000000 irq.c
00012533 l     F .text	00000007 cli
0001253a l     F .text	00000007 sti
00012541 l     F .text	0000001d inb
0001255e l     F .text	0000001f outb
0001257d l     F .text	00000028 lidt
000125a5 l     F .text	00000007 hlt
000125ac l     F .text	00000010 read_eflags
000125bc l     F .text	0000000b write_eflags
000125c7 l     F .text	00000011 read_cr2
000125d8 l     F .text	00000093 init_pic
00032200 l     O .bss	00000400 idt_table
0001297b l     F .text	000000f8 dump_core_regs
00012a73 l     F .text	0000003f do_default_handler
00000000 l    df *ABS*	00000000 console.c
00012e87 l     F .text	0000001d inb
00012ea4 l     F .text	0000001f outb
00032600 l     O .bss	000002a0 console_buf
000328a0 l     O .bss	00000004 curr_console_idx
00012ec3 l     F .text	00000074 read_cursor_pos
00012f37 l     F .text	000000ba update_cursor_pos
00012ff1 l     F .text	00000093 erase_rows
00013084 l     F .text	00000089 scroll_up
0001310d l     F .text	00000086 clear_display
00013193 l     F .text	00000010 move_to_col0
000131a3 l     F .text	00000038 move_next_line
000131db l     F .text	00000076 move_forward
00013251 l     F .text	00000078 move_backword
0001339a l     F .text	00000095 show_char
0001342f l     F .text	0000003a erase_backword
00013469 l     F .text	0000001e save_cursor
00013487 l     F .text	0000001e restore_cursor
000134a5 l     F .text	00000029 clear_esc_param
000134ce l     F .text	00000071 write_esc
0001353f l     F .text	00000099 set_font_style
00016560 l     O .rodata	00000020 color_table.2438
000135d8 l     F .text	00000051 erase_in_display
00013629 l     F .text	0000001e move_cursor
00013647 l     F .text	00000037 move_left
0001367e l     F .text	00000049 move_right
000136c7 l     F .text	000000f4 write_esc_square
000137bb l     F .text	000000a2 write_normal
00000000 l    df *ABS*	00000000 dev.c
00017050 l     O .data	00000004 dev_desc_tbl
000328c0 l     O .bss	00000a00 dev_tb
00013a02 l     F .text	0000003c is_devid_bad
00000000 l    df *ABS*	00000000 kbd.c
00013cf6 l     F .text	0000001d inb
000332c0 l     O .bss	00000004 kbd_stat
00016580 l     O .rodata	00000074 map_table
000332c4 l     O .bss	00000004 inited.2312
00013d62 l     F .text	0000001a is_make_code
00013d7c l     F .text	00000015 get_key
00013d91 l     F .text	0000003c do_fx_key
00013dcd l     F .text	000001d3 do_normal_key
000332c8 l     O .bss	00000004 recv_state.2359
00000000 l    df *ABS*	00000000 time.c
000140c4 l     F .text	0000001f outb
000332cc l     O .bss	00000004 sys_tick
0001410b l     F .text	00000060 init_pit
00000000 l    df *ABS*	00000000 tty.c
000332e0 l     O .bss	000022a0 tty_devs
00035580 l     O .bss	00000004 curr_tty
00014183 l     F .text	0000004f get_tty
00000000 l    df *ABS*	00000000 file.c
000355a0 l     O .bss	0001c000 file_table
000515a0 l     O .bss	00000014 file_alloc_mutex
00000000 l    df *ABS*	00000000 fs.c
000147da l     F .text	0000001d inb
000147f7 l     F .text	0000001f inw
00014816 l     F .text	0000001f outb
000515c0 l     O .bss	00019000 TEMP_ADDR
0006a5c0 l     O .bss	00000004 temp_pos
00014835 l     F .text	0000012f read_disk
00014964 l     F .text	00000021 is_path_valid
00000000 l    df *ABS*	00000000 init.c
0001675c l     O .rodata	00000013 __func__.2921
00000000 l    df *ABS*	00000000 mutex.c
00014d57 l     F .text	0000000b list_count
00000000 l    df *ABS*	00000000 sem.c
00014ede l     F .text	0000000b list_count
00000000 l    df *ABS*	00000000 bitmap.c
00000000 l    df *ABS*	00000000 kilb.c
00015298 l     F .text	00000007 hlt
00017098 l     O .data	00000004 num2ch.2085
00000000 l    df *ABS*	00000000 list.c
00015856 l     F .text	00000013 list_is_empty
00000000 l    df *ABS*	00000000 log.c
0006a5c4 l     O .bss	00000014 mutex
0006a5d8 l     O .bss	00000004 log_dev_id
00000000 l    df *ABS*	00000000 first_task.c
00000000 l    df *ABS*	00000000 lib_syscall.c
800000d4 l     F .first_task	0000004c sys_call
00015090 g     F .text	0000004f bitmap_get_bit
0001540b g     F .text	0000004f kernel_memcpy
00014bdd g     F .text	0000000a sys_close
000115dc g     F .text	0000000a task_current
800001d6 g     F .first_task	0000001b yield
00012676 g     F .text	0000000b irq_enable_global
000158ed g     F .text	00000064 list_insert_last
00011fd0 g     F .text	00000031 task_file
000102a8 g       .text	00000000 exception_handler_kbd
00010cf6 g     F .text	0000010c sys_sbrk
000117ec g     F .text	00000064 sys_msleep
00012be6 g     F .text	0000001c do_handler_segment_not_present
00011534 g     F .text	00000036 task_set_ready
000151ca g     F .text	0000001b bitmap_is_set
0001545a g     F .text	00000041 kernel_memset
00013bda g     F .text	0000004c dev_write
00014bb9 g     F .text	00000024 sys_lseek
00013d13 g     F .text	0000004f kbd_init
0001026a g       .text	00000000 exception_handler_virtual_exception
00010e1c g     F .text	0000008f do_handler_syscall
00012456 g     F .text	0000001e cpu_init
00015a4e g     F .text	0000002f log_init
00011901 g     F .text	00000171 sys_fork
00014d2d g     F .text	0000002a init_main
0001020f g       .text	00000000 exception_handler_alignment_check
000124fd g     F .text	00000036 gdt_free_sel
00010e02 g     F .text	0000001a sys_print_msg
0001529f g     F .text	00000047 kernel_strcpy
00013fa0 g     F .text	00000064 do_e0_key
00017000 g       .data	00000000 s_data
800001a8 g     F .first_task	0000002e execve
8000014a g     F .first_task	0000001b getpid
00012681 g     F .text	0000008b irq_enable
0001002b g       .text	00000000 exception_handler_unknown
000100a7 g       .text	00000000 exception_handler_breakpoint
00012b3e g     F .text	0000001c do_handler_overflow
00012dc3 g     F .text	0000001c do_handler_alignment_check
000105df g     F .text	0000009d memory_create_map
00014ae5 g     F .text	00000087 sys_read
0001394a g     F .text	000000b8 console_select
000101b6 g       .text	00000000 exception_handler_general_protection
00012c1e g     F .text	000000b5 do_handler_general_protection
00014ffe g     F .text	00000029 sem_count
80000012 g     F .first_task	000000a2 first_task_main
00012ace g     F .text	0000001c do_handler_divider
000150df g     F .text	000000eb bitmap_set_bit
00012bae g     F .text	0000001c do_handler_double_fault
00012cd3 g     F .text	000000d4 do_handler_page_fault
800002c0 g     F .first_task	00000021 isatty
00010142 g       .text	00000000 exception_handler_double_fault
00012e33 g     F .text	0000002b pic_send_eoi
0001152a g     F .text	0000000a task_first_task
00010000 g       .text	00000000 s_text
000107c8 g     F .text	00000085 memory_create_uvm
00014f0c g     F .text	0000006e sem_wait
00010901 g     F .text	00000025 memory_alloc_page_for
00010199 g       .text	00000000 exception_handler_stack_segment_fault
80000000 g       .first_task	00000000 first_task_entry
00014bf1 g     F .text	0000000a sys_fstat
00013b8e g     F .text	0000004c dev_read
00012e17 g     F .text	0000001c do_handler_virtual_exception
000100c6 g       .text	00000000 exception_handler_overflow
80000293 g     F .first_task	0000002d lseek
00010289 g       .text	00000000 exception_handler_time
0006a5e0 g     O .bss	00002000 stack
00014bfb g     F .text	0000000e fs_init
00010959 g     F .text	00000099 memory_free_page
0006c5e0 g       *ABS*	00000000 s_first_task
00012052 g     F .text	00000026 task_remove_fd
0001463e g     F .text	0000000a tty_control
000132c9 g     F .text	000000d1 console_init
00014420 g     F .text	00000121 tty_read
000112a9 g     F .text	00000086 task_uninit
0001084d g     F .text	000000b4 memory_alloc_for_page_dir
00014293 g     F .text	0000008d tty_fifo_get
000100e5 g       .text	00000000 exception_handler_bound_range
0001464e g     F .text	0000006d tty_in
00014f7a g     F .text	00000084 sem_notify
00010c74 g     F .text	00000082 memory_copy_uvm_data
00013c26 g     F .text	0000004c dev_control
00014004 g     F .text	000000c0 do_handler_kbd
00012b76 g     F .text	0000001c do_handler_invalid_opcode
0001015f g       .text	00000000 exception_handler_invalid_tss
00012da7 g     F .text	0000001c do_handler_fpu_error
0001143e g     F .text	000000ec task_first_init
00012ddf g     F .text	0000001c do_handler_machine_check
80000245 g     F .first_task	0000002d write
00014985 g     F .text	00000160 sys_open
00012aea g     F .text	0000001c do_handler_Debug
800002e1 g     F .first_task	00000027 fstat
00014be7 g     F .text	0000000a sys_isatty
0001588e g     F .text	0000005f list_insert_first
00013a3e g     F .text	00000150 dev_open
000117ca g     F .text	00000022 task_set_wakeup
00012b06 g     F .text	0000001c do_handler_NMI
0001004a g       .text	00000000 exception_handler_divider
000141d2 g     F .text	00000037 tty_fifo_init
000152e6 g     F .text	00000070 kernel_strncpy
0001266b g     F .text	0000000b irq_disable_global
000115e6 g     F .text	00000061 sys_sched_yield
00014b6c g     F .text	0000004d sys_write
8000036c g     F .first_task	00000021 wait
0006c96d g       *ABS*	00000000 mem_free_start
00014c92 g     F .text	00000035 kernel_init
00014ee9 g     F .text	00000023 sem_init
00010000 g       .text	00000000 _start
00015662 g     F .text	0000014b kernel_vsprintf
00015810 g     F .text	00000046 get_file_name
00010123 g       .text	00000000 exception_handler_device_unavailable
00010104 g       .text	00000000 exception_handler_invalid_opcode
00013c72 g     F .text	00000084 dev_close
0006c5e0 g       .bss	00000000 e_data
80000218 g     F .first_task	0000002d read
00014d90 g     F .text	0000008f mutex_lock
00012001 g     F .text	00000051 task_alloc_fd
000157e3 g     F .text	0000002d string_count
0001022c g       .text	00000000 exception_handler_machine_check
00014541 g     F .text	000000fd tty_write
00012bca g     F .text	0000001c do_handler_invalid_tss
00000000 g       .text	00000000 kernel_base
00014209 g     F .text	0000008a tty_fifo_put
0006c96d g       *ABS*	00000000 e_first_task
0001178e g     F .text	0000003c task_set_sleep
00014c09 g     F .text	00000089 sys_dup
000157ad g     F .text	00000036 panic
00012941 g     F .text	0000003a irq_install
00012384 g     F .text	0000008b init_gdt
00014320 g     F .text	00000100 tty_open
8000018d g     F .first_task	0000001b fork
00012e5e g     F .text	00000018 irq_enter_protection
00014d62 g     F .text	0000002e mutex_init
0001270c g     F .text	00000087 irq_disable
80000308 g     F .first_task	00000021 sbrk
0001024b g       .text	00000000 exception_handler_smd_exception
000109f2 g     F .text	000000e7 memory_destroy_uvm
00015027 g     F .text	00000016 bitmap_byte_count
00012b92 g     F .text	0000001c do_handler_device_unavailable
00011647 g     F .text	0000005b task_dispatch
00010ad9 g     F .text	00000155 memory_copy_uvm
00014648 g     F .text	00000006 tty_close
00014cc7 g     F .text	00000066 move_to_first_task
000124e9 g     F .text	00000014 switch_to_tss
0001385d g     F .text	000000e7 console_write
80000329 g     F .first_task	00000021 dup
00011597 g     F .text	00000045 task_next_run
0001549b g     F .text	00000064 kernel_memcmp
0001067c g     F .text	000000a7 create_kernel_table
00015869 g     F .text	00000025 list_init
00012dfb g     F .text	0000001c do_handler_smd_exception
000101d3 g       .text	00000000 exception_handler_page_fault
0001156a g     F .text	0000002d task_set_block
00012ab2 g     F .text	0000001c do_handler_unknown
00010926 g     F .text	00000020 memory_alloc_page
000101f0 g       .text	00000000 exception_handler_fpu_error
0001132f g     F .text	0000001e task_switch_from_to
00012793 g     F .text	000001ae irq_init
00014e1f g     F .text	000000bf mutex_unlock
000147aa g     F .text	00000030 file_table_init
00012e76 g     F .text	00000011 irq_leave_protection
00014768 g     F .text	00000042 file_free
80000165 g     F .first_task	00000028 print_msg
000153d0 g     F .text	0000003b kernel_strlen
000122fe g     F .text	00000086 segment_desc_set
00012b5a g     F .text	0000001c do_handler_bound_range
000102c7 g       .text	00000000 exception_handler_syscall
00015951 g     F .text	00000078 list_remove_first
000167c0 g       .rodata	00000000 e_text
00015356 g     F .text	0000007a kernel_strncmp
0001503d g     F .text	00000053 bitmap_init
0001017c g       .text	00000000 exception_handler_segment_not_present
00010088 g       .text	00000000 exception_handler_NMI
000151e5 g     F .text	000000b3 bitmap_alloc_nbits
000146e4 g     F .text	00000084 file_alloc
00011357 g     F .text	000000e7 task_manager_init
0001127c g     F .text	0000002d task_start
00010069 g       .text	00000000 exception_handler_Debug
000116a2 g     F .text	000000ec task_time_tick
00010723 g     F .text	000000a5 memory_init
00011e21 g     F .text	000001af sys_execve
000121cc g     F .text	000000f0 sys_wait
00012078 g     F .text	00000154 sys_exit
000146bb g     F .text	00000029 tty_select
00013944 g     F .text	00000006 console_close
00010c2e g     F .text	00000046 memory_get_paddr
00012c02 g     F .text	0000001c do_handler_stack_segment_fault
00012b22 g     F .text	0000001c do_handler_breakpoint
8000034a g     F .first_task	00000022 _exit
00015a7d g     F .text	000000b6 log_printf
00011123 g     F .text	00000159 task_init
800001f1 g     F .first_task	00000027 open
000154ff g     F .text	00000024 kernel_sprintf
00011850 g     F .text	00000016 sys_getpid
00012474 g     F .text	00000075 gdt_alloc_desc
00015523 g     F .text	0000013f kernel_itoa
000159c9 g     F .text	00000085 list_remove
0001240f g     F .text	00000047 gate_desc_set
80000120 g     F .first_task	0000002a msleep
80000272 g     F .first_task	00000021 close
0001052f g     F .text	000000b0 find_pte
000140e3 g     F .text	00000028 do_handler_time
0001416b g     F .text	00000018 time_init
00017060 g     O .data	00000038 dev_tty_desc



Disassembly of section .text:

00010000 <_start>:
_start:
    // 从栈中取出参数,参数保存在%eax中,最终传递给kernel_init函数
    // 参数位于load_32.c中
    // 以下三步可以简写为: mov 4(%esp),%eax
    // 传递的是boot_info
    push %ebp
   10000:	55                   	push   %ebp
    mov %esp,%ebp
   10001:	89 e5                	mov    %esp,%ebp
    mov 0x8(%ebp),%eax
   10003:	8b 45 08             	mov    0x8(%ebp),%eax
    
    push %eax
   10006:	50                   	push   %eax

    // kernel_init 位于init.c中
    call kernel_init
   10007:	e8 86 4c 00 00       	call   14c92 <kernel_init>

    // 加载到对应选择子以及偏移量
    jmp $KERNEL_SELECTOR_CS,$gdt_reload
   1000c:	ea 13 00 01 00 08 00 	ljmp   $0x8,$0x10013

00010013 <gdt_reload>:
gdt_reload:
    // 初始化寄存器
    mov $KERNEL_SELECTOR_DS,%ax
   10013:	66 b8 10 00          	mov    $0x10,%ax
	mov %ax, %ds
   10017:	8e d8                	mov    %eax,%ds
	mov %ax, %ss
   10019:	8e d0                	mov    %eax,%ss
	mov %ax, %es
   1001b:	8e c0                	mov    %eax,%es
	mov %ax, %fs
   1001d:	8e e0                	mov    %eax,%fs
	mov %ax, %gs
   1001f:	8e e8                	mov    %eax,%gs
    mov $(stack+KERNEL_STACK_SIZE),%esp
   10021:	bc e0 c5 06 00       	mov    $0x6c5e0,%esp
    jmp init_main
   10026:	e9 02 4d 00 00       	jmp    14d2d <init_main>

0001002b <exception_handler_unknown>:
    iret

// 宏的结束
.endm

exception_handler unknown,-1,0
   1002b:	6a 00                	push   $0x0
   1002d:	6a ff                	push   $0xffffffff
   1002f:	60                   	pusha  
   10030:	1e                   	push   %ds
   10031:	06                   	push   %es
   10032:	0f a0                	push   %fs
   10034:	0f a8                	push   %gs
   10036:	54                   	push   %esp
   10037:	e8 76 2a 00 00       	call   12ab2 <do_handler_unknown>
   1003c:	83 c4 04             	add    $0x4,%esp
   1003f:	0f a9                	pop    %gs
   10041:	0f a1                	pop    %fs
   10043:	07                   	pop    %es
   10044:	1f                   	pop    %ds
   10045:	61                   	popa   
   10046:	83 c4 08             	add    $0x8,%esp
   10049:	cf                   	iret   

0001004a <exception_handler_divider>:
exception_handler divider,0,0
   1004a:	6a 00                	push   $0x0
   1004c:	6a 00                	push   $0x0
   1004e:	60                   	pusha  
   1004f:	1e                   	push   %ds
   10050:	06                   	push   %es
   10051:	0f a0                	push   %fs
   10053:	0f a8                	push   %gs
   10055:	54                   	push   %esp
   10056:	e8 73 2a 00 00       	call   12ace <do_handler_divider>
   1005b:	83 c4 04             	add    $0x4,%esp
   1005e:	0f a9                	pop    %gs
   10060:	0f a1                	pop    %fs
   10062:	07                   	pop    %es
   10063:	1f                   	pop    %ds
   10064:	61                   	popa   
   10065:	83 c4 08             	add    $0x8,%esp
   10068:	cf                   	iret   

00010069 <exception_handler_Debug>:
exception_handler Debug, 1, 0
   10069:	6a 00                	push   $0x0
   1006b:	6a 01                	push   $0x1
   1006d:	60                   	pusha  
   1006e:	1e                   	push   %ds
   1006f:	06                   	push   %es
   10070:	0f a0                	push   %fs
   10072:	0f a8                	push   %gs
   10074:	54                   	push   %esp
   10075:	e8 70 2a 00 00       	call   12aea <do_handler_Debug>
   1007a:	83 c4 04             	add    $0x4,%esp
   1007d:	0f a9                	pop    %gs
   1007f:	0f a1                	pop    %fs
   10081:	07                   	pop    %es
   10082:	1f                   	pop    %ds
   10083:	61                   	popa   
   10084:	83 c4 08             	add    $0x8,%esp
   10087:	cf                   	iret   

00010088 <exception_handler_NMI>:
exception_handler NMI, 2, 0
   10088:	6a 00                	push   $0x0
   1008a:	6a 02                	push   $0x2
   1008c:	60                   	pusha  
   1008d:	1e                   	push   %ds
   1008e:	06                   	push   %es
   1008f:	0f a0                	push   %fs
   10091:	0f a8                	push   %gs
   10093:	54                   	push   %esp
   10094:	e8 6d 2a 00 00       	call   12b06 <do_handler_NMI>
   10099:	83 c4 04             	add    $0x4,%esp
   1009c:	0f a9                	pop    %gs
   1009e:	0f a1                	pop    %fs
   100a0:	07                   	pop    %es
   100a1:	1f                   	pop    %ds
   100a2:	61                   	popa   
   100a3:	83 c4 08             	add    $0x8,%esp
   100a6:	cf                   	iret   

000100a7 <exception_handler_breakpoint>:
exception_handler breakpoint, 3, 0
   100a7:	6a 00                	push   $0x0
   100a9:	6a 03                	push   $0x3
   100ab:	60                   	pusha  
   100ac:	1e                   	push   %ds
   100ad:	06                   	push   %es
   100ae:	0f a0                	push   %fs
   100b0:	0f a8                	push   %gs
   100b2:	54                   	push   %esp
   100b3:	e8 6a 2a 00 00       	call   12b22 <do_handler_breakpoint>
   100b8:	83 c4 04             	add    $0x4,%esp
   100bb:	0f a9                	pop    %gs
   100bd:	0f a1                	pop    %fs
   100bf:	07                   	pop    %es
   100c0:	1f                   	pop    %ds
   100c1:	61                   	popa   
   100c2:	83 c4 08             	add    $0x8,%esp
   100c5:	cf                   	iret   

000100c6 <exception_handler_overflow>:
exception_handler overflow, 4, 0
   100c6:	6a 00                	push   $0x0
   100c8:	6a 04                	push   $0x4
   100ca:	60                   	pusha  
   100cb:	1e                   	push   %ds
   100cc:	06                   	push   %es
   100cd:	0f a0                	push   %fs
   100cf:	0f a8                	push   %gs
   100d1:	54                   	push   %esp
   100d2:	e8 67 2a 00 00       	call   12b3e <do_handler_overflow>
   100d7:	83 c4 04             	add    $0x4,%esp
   100da:	0f a9                	pop    %gs
   100dc:	0f a1                	pop    %fs
   100de:	07                   	pop    %es
   100df:	1f                   	pop    %ds
   100e0:	61                   	popa   
   100e1:	83 c4 08             	add    $0x8,%esp
   100e4:	cf                   	iret   

000100e5 <exception_handler_bound_range>:
exception_handler bound_range, 5, 0
   100e5:	6a 00                	push   $0x0
   100e7:	6a 05                	push   $0x5
   100e9:	60                   	pusha  
   100ea:	1e                   	push   %ds
   100eb:	06                   	push   %es
   100ec:	0f a0                	push   %fs
   100ee:	0f a8                	push   %gs
   100f0:	54                   	push   %esp
   100f1:	e8 64 2a 00 00       	call   12b5a <do_handler_bound_range>
   100f6:	83 c4 04             	add    $0x4,%esp
   100f9:	0f a9                	pop    %gs
   100fb:	0f a1                	pop    %fs
   100fd:	07                   	pop    %es
   100fe:	1f                   	pop    %ds
   100ff:	61                   	popa   
   10100:	83 c4 08             	add    $0x8,%esp
   10103:	cf                   	iret   

00010104 <exception_handler_invalid_opcode>:
exception_handler invalid_opcode, 6, 0
   10104:	6a 00                	push   $0x0
   10106:	6a 06                	push   $0x6
   10108:	60                   	pusha  
   10109:	1e                   	push   %ds
   1010a:	06                   	push   %es
   1010b:	0f a0                	push   %fs
   1010d:	0f a8                	push   %gs
   1010f:	54                   	push   %esp
   10110:	e8 61 2a 00 00       	call   12b76 <do_handler_invalid_opcode>
   10115:	83 c4 04             	add    $0x4,%esp
   10118:	0f a9                	pop    %gs
   1011a:	0f a1                	pop    %fs
   1011c:	07                   	pop    %es
   1011d:	1f                   	pop    %ds
   1011e:	61                   	popa   
   1011f:	83 c4 08             	add    $0x8,%esp
   10122:	cf                   	iret   

00010123 <exception_handler_device_unavailable>:
exception_handler device_unavailable, 7, 0
   10123:	6a 00                	push   $0x0
   10125:	6a 07                	push   $0x7
   10127:	60                   	pusha  
   10128:	1e                   	push   %ds
   10129:	06                   	push   %es
   1012a:	0f a0                	push   %fs
   1012c:	0f a8                	push   %gs
   1012e:	54                   	push   %esp
   1012f:	e8 5e 2a 00 00       	call   12b92 <do_handler_device_unavailable>
   10134:	83 c4 04             	add    $0x4,%esp
   10137:	0f a9                	pop    %gs
   10139:	0f a1                	pop    %fs
   1013b:	07                   	pop    %es
   1013c:	1f                   	pop    %ds
   1013d:	61                   	popa   
   1013e:	83 c4 08             	add    $0x8,%esp
   10141:	cf                   	iret   

00010142 <exception_handler_double_fault>:
exception_handler double_fault, 8, 1
   10142:	6a 08                	push   $0x8
   10144:	60                   	pusha  
   10145:	1e                   	push   %ds
   10146:	06                   	push   %es
   10147:	0f a0                	push   %fs
   10149:	0f a8                	push   %gs
   1014b:	54                   	push   %esp
   1014c:	e8 5d 2a 00 00       	call   12bae <do_handler_double_fault>
   10151:	83 c4 04             	add    $0x4,%esp
   10154:	0f a9                	pop    %gs
   10156:	0f a1                	pop    %fs
   10158:	07                   	pop    %es
   10159:	1f                   	pop    %ds
   1015a:	61                   	popa   
   1015b:	83 c4 08             	add    $0x8,%esp
   1015e:	cf                   	iret   

0001015f <exception_handler_invalid_tss>:
exception_handler invalid_tss, 10, 1
   1015f:	6a 0a                	push   $0xa
   10161:	60                   	pusha  
   10162:	1e                   	push   %ds
   10163:	06                   	push   %es
   10164:	0f a0                	push   %fs
   10166:	0f a8                	push   %gs
   10168:	54                   	push   %esp
   10169:	e8 5c 2a 00 00       	call   12bca <do_handler_invalid_tss>
   1016e:	83 c4 04             	add    $0x4,%esp
   10171:	0f a9                	pop    %gs
   10173:	0f a1                	pop    %fs
   10175:	07                   	pop    %es
   10176:	1f                   	pop    %ds
   10177:	61                   	popa   
   10178:	83 c4 08             	add    $0x8,%esp
   1017b:	cf                   	iret   

0001017c <exception_handler_segment_not_present>:
exception_handler segment_not_present, 11, 1
   1017c:	6a 0b                	push   $0xb
   1017e:	60                   	pusha  
   1017f:	1e                   	push   %ds
   10180:	06                   	push   %es
   10181:	0f a0                	push   %fs
   10183:	0f a8                	push   %gs
   10185:	54                   	push   %esp
   10186:	e8 5b 2a 00 00       	call   12be6 <do_handler_segment_not_present>
   1018b:	83 c4 04             	add    $0x4,%esp
   1018e:	0f a9                	pop    %gs
   10190:	0f a1                	pop    %fs
   10192:	07                   	pop    %es
   10193:	1f                   	pop    %ds
   10194:	61                   	popa   
   10195:	83 c4 08             	add    $0x8,%esp
   10198:	cf                   	iret   

00010199 <exception_handler_stack_segment_fault>:
exception_handler stack_segment_fault, 12, 1
   10199:	6a 0c                	push   $0xc
   1019b:	60                   	pusha  
   1019c:	1e                   	push   %ds
   1019d:	06                   	push   %es
   1019e:	0f a0                	push   %fs
   101a0:	0f a8                	push   %gs
   101a2:	54                   	push   %esp
   101a3:	e8 5a 2a 00 00       	call   12c02 <do_handler_stack_segment_fault>
   101a8:	83 c4 04             	add    $0x4,%esp
   101ab:	0f a9                	pop    %gs
   101ad:	0f a1                	pop    %fs
   101af:	07                   	pop    %es
   101b0:	1f                   	pop    %ds
   101b1:	61                   	popa   
   101b2:	83 c4 08             	add    $0x8,%esp
   101b5:	cf                   	iret   

000101b6 <exception_handler_general_protection>:
exception_handler general_protection, 13, 1
   101b6:	6a 0d                	push   $0xd
   101b8:	60                   	pusha  
   101b9:	1e                   	push   %ds
   101ba:	06                   	push   %es
   101bb:	0f a0                	push   %fs
   101bd:	0f a8                	push   %gs
   101bf:	54                   	push   %esp
   101c0:	e8 59 2a 00 00       	call   12c1e <do_handler_general_protection>
   101c5:	83 c4 04             	add    $0x4,%esp
   101c8:	0f a9                	pop    %gs
   101ca:	0f a1                	pop    %fs
   101cc:	07                   	pop    %es
   101cd:	1f                   	pop    %ds
   101ce:	61                   	popa   
   101cf:	83 c4 08             	add    $0x8,%esp
   101d2:	cf                   	iret   

000101d3 <exception_handler_page_fault>:
exception_handler page_fault, 14, 1
   101d3:	6a 0e                	push   $0xe
   101d5:	60                   	pusha  
   101d6:	1e                   	push   %ds
   101d7:	06                   	push   %es
   101d8:	0f a0                	push   %fs
   101da:	0f a8                	push   %gs
   101dc:	54                   	push   %esp
   101dd:	e8 f1 2a 00 00       	call   12cd3 <do_handler_page_fault>
   101e2:	83 c4 04             	add    $0x4,%esp
   101e5:	0f a9                	pop    %gs
   101e7:	0f a1                	pop    %fs
   101e9:	07                   	pop    %es
   101ea:	1f                   	pop    %ds
   101eb:	61                   	popa   
   101ec:	83 c4 08             	add    $0x8,%esp
   101ef:	cf                   	iret   

000101f0 <exception_handler_fpu_error>:
exception_handler fpu_error, 16, 0
   101f0:	6a 00                	push   $0x0
   101f2:	6a 10                	push   $0x10
   101f4:	60                   	pusha  
   101f5:	1e                   	push   %ds
   101f6:	06                   	push   %es
   101f7:	0f a0                	push   %fs
   101f9:	0f a8                	push   %gs
   101fb:	54                   	push   %esp
   101fc:	e8 a6 2b 00 00       	call   12da7 <do_handler_fpu_error>
   10201:	83 c4 04             	add    $0x4,%esp
   10204:	0f a9                	pop    %gs
   10206:	0f a1                	pop    %fs
   10208:	07                   	pop    %es
   10209:	1f                   	pop    %ds
   1020a:	61                   	popa   
   1020b:	83 c4 08             	add    $0x8,%esp
   1020e:	cf                   	iret   

0001020f <exception_handler_alignment_check>:
exception_handler alignment_check, 17, 1
   1020f:	6a 11                	push   $0x11
   10211:	60                   	pusha  
   10212:	1e                   	push   %ds
   10213:	06                   	push   %es
   10214:	0f a0                	push   %fs
   10216:	0f a8                	push   %gs
   10218:	54                   	push   %esp
   10219:	e8 a5 2b 00 00       	call   12dc3 <do_handler_alignment_check>
   1021e:	83 c4 04             	add    $0x4,%esp
   10221:	0f a9                	pop    %gs
   10223:	0f a1                	pop    %fs
   10225:	07                   	pop    %es
   10226:	1f                   	pop    %ds
   10227:	61                   	popa   
   10228:	83 c4 08             	add    $0x8,%esp
   1022b:	cf                   	iret   

0001022c <exception_handler_machine_check>:
exception_handler machine_check, 18, 0
   1022c:	6a 00                	push   $0x0
   1022e:	6a 12                	push   $0x12
   10230:	60                   	pusha  
   10231:	1e                   	push   %ds
   10232:	06                   	push   %es
   10233:	0f a0                	push   %fs
   10235:	0f a8                	push   %gs
   10237:	54                   	push   %esp
   10238:	e8 a2 2b 00 00       	call   12ddf <do_handler_machine_check>
   1023d:	83 c4 04             	add    $0x4,%esp
   10240:	0f a9                	pop    %gs
   10242:	0f a1                	pop    %fs
   10244:	07                   	pop    %es
   10245:	1f                   	pop    %ds
   10246:	61                   	popa   
   10247:	83 c4 08             	add    $0x8,%esp
   1024a:	cf                   	iret   

0001024b <exception_handler_smd_exception>:
exception_handler smd_exception, 19, 0
   1024b:	6a 00                	push   $0x0
   1024d:	6a 13                	push   $0x13
   1024f:	60                   	pusha  
   10250:	1e                   	push   %ds
   10251:	06                   	push   %es
   10252:	0f a0                	push   %fs
   10254:	0f a8                	push   %gs
   10256:	54                   	push   %esp
   10257:	e8 9f 2b 00 00       	call   12dfb <do_handler_smd_exception>
   1025c:	83 c4 04             	add    $0x4,%esp
   1025f:	0f a9                	pop    %gs
   10261:	0f a1                	pop    %fs
   10263:	07                   	pop    %es
   10264:	1f                   	pop    %ds
   10265:	61                   	popa   
   10266:	83 c4 08             	add    $0x8,%esp
   10269:	cf                   	iret   

0001026a <exception_handler_virtual_exception>:
exception_handler virtual_exception, 20, 0
   1026a:	6a 00                	push   $0x0
   1026c:	6a 14                	push   $0x14
   1026e:	60                   	pusha  
   1026f:	1e                   	push   %ds
   10270:	06                   	push   %es
   10271:	0f a0                	push   %fs
   10273:	0f a8                	push   %gs
   10275:	54                   	push   %esp
   10276:	e8 9c 2b 00 00       	call   12e17 <do_handler_virtual_exception>
   1027b:	83 c4 04             	add    $0x4,%esp
   1027e:	0f a9                	pop    %gs
   10280:	0f a1                	pop    %fs
   10282:	07                   	pop    %es
   10283:	1f                   	pop    %ds
   10284:	61                   	popa   
   10285:	83 c4 08             	add    $0x8,%esp
   10288:	cf                   	iret   

00010289 <exception_handler_time>:
exception_handler time,0x20,0
   10289:	6a 00                	push   $0x0
   1028b:	6a 20                	push   $0x20
   1028d:	60                   	pusha  
   1028e:	1e                   	push   %ds
   1028f:	06                   	push   %es
   10290:	0f a0                	push   %fs
   10292:	0f a8                	push   %gs
   10294:	54                   	push   %esp
   10295:	e8 49 3e 00 00       	call   140e3 <do_handler_time>
   1029a:	83 c4 04             	add    $0x4,%esp
   1029d:	0f a9                	pop    %gs
   1029f:	0f a1                	pop    %fs
   102a1:	07                   	pop    %es
   102a2:	1f                   	pop    %ds
   102a3:	61                   	popa   
   102a4:	83 c4 08             	add    $0x8,%esp
   102a7:	cf                   	iret   

000102a8 <exception_handler_kbd>:
exception_handler kbd,0x21,0
   102a8:	6a 00                	push   $0x0
   102aa:	6a 21                	push   $0x21
   102ac:	60                   	pusha  
   102ad:	1e                   	push   %ds
   102ae:	06                   	push   %es
   102af:	0f a0                	push   %fs
   102b1:	0f a8                	push   %gs
   102b3:	54                   	push   %esp
   102b4:	e8 4b 3d 00 00       	call   14004 <do_handler_kbd>
   102b9:	83 c4 04             	add    $0x4,%esp
   102bc:	0f a9                	pop    %gs
   102be:	0f a1                	pop    %fs
   102c0:	07                   	pop    %es
   102c1:	1f                   	pop    %ds
   102c2:	61                   	popa   
   102c3:	83 c4 08             	add    $0x8,%esp
   102c6:	cf                   	iret   

000102c7 <exception_handler_syscall>:

    .global exception_handler_syscall
    .extern do_handler_syscall
exception_handler_syscall:
    pusha
   102c7:	60                   	pusha  
    push %ds
   102c8:	1e                   	push   %ds
    push %es
   102c9:	06                   	push   %es
    push %fs
   102ca:	0f a0                	push   %fs
    push %gs
   102cc:	0f a8                	push   %gs
    pushf
   102ce:	9c                   	pushf  

    mov %esp,%eax
   102cf:	89 e0                	mov    %esp,%eax
    push %eax
   102d1:	50                   	push   %eax

    call do_handler_syscall
   102d2:	e8 45 0b 00 00       	call   10e1c <do_handler_syscall>
    add $4,%esp
   102d7:	83 c4 04             	add    $0x4,%esp
    
    popf
   102da:	9d                   	popf   
    pop %gs
   102db:	0f a9                	pop    %gs
    pop %fs
   102dd:	0f a1                	pop    %fs
    pop %es
   102df:	07                   	pop    %es
    pop %ds
   102e0:	1f                   	pop    %ds
    popa
   102e1:	61                   	popa   

   102e2:	ca 14 00             	lret   $0x14

000102e5 <read_cr0>:

/**
 * @brief 读取cr0寄存器
 * @return cr0寄存器的值 
 */
static inline uint32_t read_cr0(void){
   102e5:	55                   	push   %ebp
   102e6:	89 e5                	mov    %esp,%ebp
   102e8:	83 ec 10             	sub    $0x10,%esp
    uint32_t cr0;
    __asm__ __volatile__(
   102eb:	0f 20 c0             	mov    %cr0,%eax
   102ee:	89 45 fc             	mov    %eax,-0x4(%ebp)
        "mov %%cr0, %[v]"
        :[v]"=r"(cr0)
        :
    );
    return cr0;
   102f1:	8b 45 fc             	mov    -0x4(%ebp),%eax
}
   102f4:	c9                   	leave  
   102f5:	c3                   	ret    

000102f6 <write_cr0>:

/**
 * @brief 读取cr0寄存器
 * @return cr0寄存器的值 
 */
static inline void write_cr0(uint32_t v){
   102f6:	55                   	push   %ebp
   102f7:	89 e5                	mov    %esp,%ebp
    __asm__ __volatile__(
   102f9:	8b 45 08             	mov    0x8(%ebp),%eax
   102fc:	0f 22 c0             	mov    %eax,%cr0
        "mov %[v],%%cr0"
        :
        :[v]"r"(v)
    );
}
   102ff:	90                   	nop
   10300:	5d                   	pop    %ebp
   10301:	c3                   	ret    

00010302 <write_cr3>:
        :
        :"a"(eflags)
    );
}

static inline void write_cr3(uint32_t v){
   10302:	55                   	push   %ebp
   10303:	89 e5                	mov    %esp,%ebp
    __asm__ __volatile__(
   10305:	8b 45 08             	mov    0x8(%ebp),%eax
   10308:	0f 22 d8             	mov    %eax,%cr3
        "mov %[v],%%cr3"
        :
        :[v]"r"(v)
    );
}
   1030b:	90                   	nop
   1030c:	5d                   	pop    %ebp
   1030d:	c3                   	ret    

0001030e <write_cr4>:

/**
 * @brief 写入cr4寄存器
 * @param v 要写入的值
 */
static inline void write_cr4(uint32_t v){
   1030e:	55                   	push   %ebp
   1030f:	89 e5                	mov    %esp,%ebp
    __asm__ __volatile__(
   10311:	8b 45 08             	mov    0x8(%ebp),%eax
   10314:	0f 22 e0             	mov    %eax,%cr4
        "mov %[v],%%cr4"
        :
        :[v]"r"(v)
    );
}
   10317:	90                   	nop
   10318:	5d                   	pop    %ebp
   10319:	c3                   	ret    

0001031a <read_cr4>:

/**
 * @brief 读取cr4寄存器
 * @return cr4寄存器的值 
*/
static inline uint32_t read_cr4(void){
   1031a:	55                   	push   %ebp
   1031b:	89 e5                	mov    %esp,%ebp
   1031d:	83 ec 10             	sub    $0x10,%esp
    uint32_t cr4;
    __asm__ __volatile__(
   10320:	0f 20 e0             	mov    %cr4,%eax
   10323:	89 45 fc             	mov    %eax,-0x4(%ebp)
        "mov %%cr4,%[v]"
        :[v]"=r"(cr4)
        :
    );
    return cr4;
   10326:	8b 45 fc             	mov    -0x4(%ebp),%eax
}
   10329:	c9                   	leave  
   1032a:	c3                   	ret    

0001032b <down2>:
#include <stdarg.h>
#include "comm/types.h"
#include "tools/log.h"
#include "comm/cpu_instr.h"

static inline uint32_t down2(uint32_t size,uint32_t bound){
   1032b:	55                   	push   %ebp
   1032c:	89 e5                	mov    %esp,%ebp
    return size & ~(bound-1);
   1032e:	8b 45 0c             	mov    0xc(%ebp),%eax
   10331:	f7 d8                	neg    %eax
   10333:	23 45 08             	and    0x8(%ebp),%eax
}
   10336:	5d                   	pop    %ebp
   10337:	c3                   	ret    

00010338 <up2>:

static inline uint32_t up2(uint32_t size,uint32_t bound){
   10338:	55                   	push   %ebp
   10339:	89 e5                	mov    %esp,%ebp
    return (size+bound-1) & ~(bound-1);
   1033b:	8b 55 08             	mov    0x8(%ebp),%edx
   1033e:	8b 45 0c             	mov    0xc(%ebp),%eax
   10341:	01 d0                	add    %edx,%eax
   10343:	8d 50 ff             	lea    -0x1(%eax),%edx
   10346:	8b 45 0c             	mov    0xc(%ebp),%eax
   10349:	f7 d8                	neg    %eax
   1034b:	21 d0                	and    %edx,%eax
}
   1034d:	5d                   	pop    %ebp
   1034e:	c3                   	ret    

0001034f <mmu_set_page_dir>:

/**
 * @brief 将页目录的物理地址写入cr3寄存器
 * @param paddr 页目录表的物理地址 
*/
static inline void mmu_set_page_dir(uint32_t paddr){
   1034f:	55                   	push   %ebp
   10350:	89 e5                	mov    %esp,%ebp
   10352:	83 ec 10             	sub    $0x10,%esp
    uint32_t cr4=read_cr4();
   10355:	e8 c0 ff ff ff       	call   1031a <read_cr4>
   1035a:	89 45 fc             	mov    %eax,-0x4(%ebp)
	write_cr4(cr4|CR4_PSE);
   1035d:	8b 45 fc             	mov    -0x4(%ebp),%eax
   10360:	83 c8 10             	or     $0x10,%eax
   10363:	50                   	push   %eax
   10364:	e8 a5 ff ff ff       	call   1030e <write_cr4>
   10369:	83 c4 04             	add    $0x4,%esp
	write_cr3(paddr);
   1036c:	ff 75 08             	pushl  0x8(%ebp)
   1036f:	e8 8e ff ff ff       	call   10302 <write_cr3>
   10374:	83 c4 04             	add    $0x4,%esp
	write_cr0(read_cr0()|CR0_PG);
   10377:	e8 69 ff ff ff       	call   102e5 <read_cr0>
   1037c:	0d 00 00 00 80       	or     $0x80000000,%eax
   10381:	50                   	push   %eax
   10382:	e8 6f ff ff ff       	call   102f6 <write_cr0>
   10387:	83 c4 04             	add    $0x4,%esp
}
   1038a:	90                   	nop
   1038b:	c9                   	leave  
   1038c:	c3                   	ret    

0001038d <pde_index>:

static inline uint32_t pde_index(uint32_t vaddr){
   1038d:	55                   	push   %ebp
   1038e:	89 e5                	mov    %esp,%ebp
    return vaddr >> 22;
   10390:	8b 45 08             	mov    0x8(%ebp),%eax
   10393:	c1 e8 16             	shr    $0x16,%eax
}
   10396:	5d                   	pop    %ebp
   10397:	c3                   	ret    

00010398 <pte_index>:

static inline uint32_t pte_index(uint32_t vaddr){
   10398:	55                   	push   %ebp
   10399:	89 e5                	mov    %esp,%ebp
    return (vaddr >> 12)  & 0x3FF;
   1039b:	8b 45 08             	mov    0x8(%ebp),%eax
   1039e:	c1 e8 0c             	shr    $0xc,%eax
   103a1:	25 ff 03 00 00       	and    $0x3ff,%eax
}
   103a6:	5d                   	pop    %ebp
   103a7:	c3                   	ret    

000103a8 <pde_paddr>:

static inline uint32_t pde_paddr(pde_t* pde){
   103a8:	55                   	push   %ebp
   103a9:	89 e5                	mov    %esp,%ebp
    return pde->phy_pt_addr << 12;
   103ab:	8b 45 08             	mov    0x8(%ebp),%eax
   103ae:	8b 00                	mov    (%eax),%eax
   103b0:	c1 e8 0c             	shr    $0xc,%eax
   103b3:	c1 e0 0c             	shl    $0xc,%eax
}
   103b6:	5d                   	pop    %ebp
   103b7:	c3                   	ret    

000103b8 <pte_paddr>:

static inline uint32_t pte_paddr(pte_t* pte){
   103b8:	55                   	push   %ebp
   103b9:	89 e5                	mov    %esp,%ebp
    return pte->phy_pt_addr << 12;
   103bb:	8b 45 08             	mov    0x8(%ebp),%eax
   103be:	8b 00                	mov    (%eax),%eax
   103c0:	c1 e8 0c             	shr    $0xc,%eax
   103c3:	c1 e0 0c             	shl    $0xc,%eax
}
   103c6:	5d                   	pop    %ebp
   103c7:	c3                   	ret    

000103c8 <get_pte_perm>:

static inline uint32_t get_pte_perm(pte_t* pte){
   103c8:	55                   	push   %ebp
   103c9:	89 e5                	mov    %esp,%ebp
    return (pte->v & 0x1FF);
   103cb:	8b 45 08             	mov    0x8(%ebp),%eax
   103ce:	8b 00                	mov    (%eax),%eax
   103d0:	25 ff 01 00 00       	and    $0x1ff,%eax
}
   103d5:	5d                   	pop    %ebp
   103d6:	c3                   	ret    

000103d7 <addr_alloc_init>:

/// @brief 内核页目录表
static pde_t kernel_page_dir[PDE_CNT] __attribute__((aligned(MEM_PAGE_SIZE)));

static void addr_alloc_init(addr_alloc_t* alloc,uint8_t* bits,
    uint32_t start,uint32_t size,uint32_t page_size){
   103d7:	55                   	push   %ebp
   103d8:	89 e5                	mov    %esp,%ebp
   103da:	83 ec 08             	sub    $0x8,%esp
        mutex_init(&alloc->mutex);
   103dd:	8b 45 08             	mov    0x8(%ebp),%eax
   103e0:	83 ec 0c             	sub    $0xc,%esp
   103e3:	50                   	push   %eax
   103e4:	e8 79 49 00 00       	call   14d62 <mutex_init>
   103e9:	83 c4 10             	add    $0x10,%esp
        alloc->start=start;
   103ec:	8b 45 08             	mov    0x8(%ebp),%eax
   103ef:	8b 55 10             	mov    0x10(%ebp),%edx
   103f2:	89 50 1c             	mov    %edx,0x1c(%eax)
        alloc->size=size;
   103f5:	8b 45 08             	mov    0x8(%ebp),%eax
   103f8:	8b 55 14             	mov    0x14(%ebp),%edx
   103fb:	89 50 20             	mov    %edx,0x20(%eax)
        alloc->page_size=page_size;
   103fe:	8b 45 08             	mov    0x8(%ebp),%eax
   10401:	8b 55 18             	mov    0x18(%ebp),%edx
   10404:	89 50 24             	mov    %edx,0x24(%eax)
        bitmap_init(&alloc->bitmap,bits,alloc->size/page_size,0);
   10407:	8b 45 08             	mov    0x8(%ebp),%eax
   1040a:	8b 40 20             	mov    0x20(%eax),%eax
   1040d:	ba 00 00 00 00       	mov    $0x0,%edx
   10412:	f7 75 18             	divl   0x18(%ebp)
   10415:	89 c2                	mov    %eax,%edx
   10417:	8b 45 08             	mov    0x8(%ebp),%eax
   1041a:	83 c0 14             	add    $0x14,%eax
   1041d:	6a 00                	push   $0x0
   1041f:	52                   	push   %edx
   10420:	ff 75 0c             	pushl  0xc(%ebp)
   10423:	50                   	push   %eax
   10424:	e8 14 4c 00 00       	call   1503d <bitmap_init>
   10429:	83 c4 10             	add    $0x10,%esp
}
   1042c:	90                   	nop
   1042d:	c9                   	leave  
   1042e:	c3                   	ret    

0001042f <addr_alloc_page>:

static uint32_t addr_alloc_page(addr_alloc_t* alloc,int page_count){
   1042f:	55                   	push   %ebp
   10430:	89 e5                	mov    %esp,%ebp
   10432:	83 ec 18             	sub    $0x18,%esp
    uint32_t addr=0;
   10435:	c7 45 f4 00 00 00 00 	movl   $0x0,-0xc(%ebp)
    mutex_lock(&alloc->mutex);
   1043c:	8b 45 08             	mov    0x8(%ebp),%eax
   1043f:	83 ec 0c             	sub    $0xc,%esp
   10442:	50                   	push   %eax
   10443:	e8 48 49 00 00       	call   14d90 <mutex_lock>
   10448:	83 c4 10             	add    $0x10,%esp
    int page_index=bitmap_alloc_nbits(&alloc->bitmap,0,page_count);
   1044b:	8b 45 08             	mov    0x8(%ebp),%eax
   1044e:	83 c0 14             	add    $0x14,%eax
   10451:	83 ec 04             	sub    $0x4,%esp
   10454:	ff 75 0c             	pushl  0xc(%ebp)
   10457:	6a 00                	push   $0x0
   10459:	50                   	push   %eax
   1045a:	e8 86 4d 00 00       	call   151e5 <bitmap_alloc_nbits>
   1045f:	83 c4 10             	add    $0x10,%esp
   10462:	89 45 f0             	mov    %eax,-0x10(%ebp)
    if(page_index>=0){
   10465:	83 7d f0 00          	cmpl   $0x0,-0x10(%ebp)
   10469:	78 17                	js     10482 <addr_alloc_page+0x53>
        addr=alloc->start+page_index*alloc->page_size;
   1046b:	8b 45 08             	mov    0x8(%ebp),%eax
   1046e:	8b 50 1c             	mov    0x1c(%eax),%edx
   10471:	8b 45 08             	mov    0x8(%ebp),%eax
   10474:	8b 48 24             	mov    0x24(%eax),%ecx
   10477:	8b 45 f0             	mov    -0x10(%ebp),%eax
   1047a:	0f af c1             	imul   %ecx,%eax
   1047d:	01 d0                	add    %edx,%eax
   1047f:	89 45 f4             	mov    %eax,-0xc(%ebp)
    }
    mutex_unlock(&alloc->mutex);
   10482:	8b 45 08             	mov    0x8(%ebp),%eax
   10485:	83 ec 0c             	sub    $0xc,%esp
   10488:	50                   	push   %eax
   10489:	e8 91 49 00 00       	call   14e1f <mutex_unlock>
   1048e:	83 c4 10             	add    $0x10,%esp
    return addr;
   10491:	8b 45 f4             	mov    -0xc(%ebp),%eax
}
   10494:	c9                   	leave  
   10495:	c3                   	ret    

00010496 <addr_free_page>:
 * @brief 释放页表项对应的物理页
 * @param alloc 内存页管理器的指针
 * @param addr 页表项对应的物理页的地址
 * @param page_count 页表项对应的物理页的数量
*/
static void addr_free_page(addr_alloc_t* alloc,uint32_t addr,int page_count){
   10496:	55                   	push   %ebp
   10497:	89 e5                	mov    %esp,%ebp
   10499:	53                   	push   %ebx
   1049a:	83 ec 14             	sub    $0x14,%esp
    mutex_lock(&alloc->mutex);
   1049d:	8b 45 08             	mov    0x8(%ebp),%eax
   104a0:	83 ec 0c             	sub    $0xc,%esp
   104a3:	50                   	push   %eax
   104a4:	e8 e7 48 00 00       	call   14d90 <mutex_lock>
   104a9:	83 c4 10             	add    $0x10,%esp
    uint32_t pg_index=(addr-alloc->start)/alloc->page_size;
   104ac:	8b 45 08             	mov    0x8(%ebp),%eax
   104af:	8b 40 1c             	mov    0x1c(%eax),%eax
   104b2:	8b 55 0c             	mov    0xc(%ebp),%edx
   104b5:	89 d1                	mov    %edx,%ecx
   104b7:	29 c1                	sub    %eax,%ecx
   104b9:	8b 45 08             	mov    0x8(%ebp),%eax
   104bc:	8b 58 24             	mov    0x24(%eax),%ebx
   104bf:	89 c8                	mov    %ecx,%eax
   104c1:	ba 00 00 00 00       	mov    $0x0,%edx
   104c6:	f7 f3                	div    %ebx
   104c8:	89 45 f4             	mov    %eax,-0xc(%ebp)
    bitmap_set_bit(&alloc->bitmap,pg_index,page_count,0);
   104cb:	8b 45 f4             	mov    -0xc(%ebp),%eax
   104ce:	8b 55 08             	mov    0x8(%ebp),%edx
   104d1:	83 c2 14             	add    $0x14,%edx
   104d4:	6a 00                	push   $0x0
   104d6:	ff 75 10             	pushl  0x10(%ebp)
   104d9:	50                   	push   %eax
   104da:	52                   	push   %edx
   104db:	e8 ff 4b 00 00       	call   150df <bitmap_set_bit>
   104e0:	83 c4 10             	add    $0x10,%esp
    mutex_unlock(&alloc->mutex);
   104e3:	8b 45 08             	mov    0x8(%ebp),%eax
   104e6:	83 ec 0c             	sub    $0xc,%esp
   104e9:	50                   	push   %eax
   104ea:	e8 30 49 00 00       	call   14e1f <mutex_unlock>
   104ef:	83 c4 10             	add    $0x10,%esp
}
   104f2:	90                   	nop
   104f3:	8b 5d fc             	mov    -0x4(%ebp),%ebx
   104f6:	c9                   	leave  
   104f7:	c3                   	ret    

000104f8 <total_mem_size>:

static uint32_t total_mem_size(boot_info_t* boot_info){
   104f8:	55                   	push   %ebp
   104f9:	89 e5                	mov    %esp,%ebp
   104fb:	83 ec 10             	sub    $0x10,%esp
    uint32_t mem_size=0;
   104fe:	c7 45 fc 00 00 00 00 	movl   $0x0,-0x4(%ebp)
    for(int i=0;i<boot_info->ram_region_count;i++){
   10505:	c7 45 f8 00 00 00 00 	movl   $0x0,-0x8(%ebp)
   1050c:	eb 11                	jmp    1051f <total_mem_size+0x27>
        mem_size+=boot_info->ram_region_cfg[i].size;
   1050e:	8b 45 08             	mov    0x8(%ebp),%eax
   10511:	8b 55 f8             	mov    -0x8(%ebp),%edx
   10514:	8b 44 d0 04          	mov    0x4(%eax,%edx,8),%eax
   10518:	01 45 fc             	add    %eax,-0x4(%ebp)
    for(int i=0;i<boot_info->ram_region_count;i++){
   1051b:	83 45 f8 01          	addl   $0x1,-0x8(%ebp)
   1051f:	8b 45 08             	mov    0x8(%ebp),%eax
   10522:	8b 40 50             	mov    0x50(%eax),%eax
   10525:	39 45 f8             	cmp    %eax,-0x8(%ebp)
   10528:	7c e4                	jl     1050e <total_mem_size+0x16>
    }
    return mem_size;
   1052a:	8b 45 fc             	mov    -0x4(%ebp),%eax
}
   1052d:	c9                   	leave  
   1052e:	c3                   	ret    

0001052f <find_pte>:

pte_t* find_pte(pde_t*page_dir,uint32_t vaddr,int alloc){
   1052f:	55                   	push   %ebp
   10530:	89 e5                	mov    %esp,%ebp
   10532:	83 ec 18             	sub    $0x18,%esp
    pte_t* page_table;
    pde_t* pde=page_dir+pde_index(vaddr);
   10535:	ff 75 0c             	pushl  0xc(%ebp)
   10538:	e8 50 fe ff ff       	call   1038d <pde_index>
   1053d:	83 c4 04             	add    $0x4,%esp
   10540:	8d 14 85 00 00 00 00 	lea    0x0(,%eax,4),%edx
   10547:	8b 45 08             	mov    0x8(%ebp),%eax
   1054a:	01 d0                	add    %edx,%eax
   1054c:	89 45 f0             	mov    %eax,-0x10(%ebp)
    if(pde->present){
   1054f:	8b 45 f0             	mov    -0x10(%ebp),%eax
   10552:	0f b6 00             	movzbl (%eax),%eax
   10555:	83 e0 01             	and    $0x1,%eax
   10558:	84 c0                	test   %al,%al
   1055a:	74 10                	je     1056c <find_pte+0x3d>
        page_table=(pte_t*)pde_paddr(pde);
   1055c:	ff 75 f0             	pushl  -0x10(%ebp)
   1055f:	e8 44 fe ff ff       	call   103a8 <pde_paddr>
   10564:	83 c4 04             	add    $0x4,%esp
   10567:	89 45 f4             	mov    %eax,-0xc(%ebp)
   1056a:	eb 57                	jmp    105c3 <find_pte+0x94>
    }
    else{
        if(alloc==0){
   1056c:	83 7d 10 00          	cmpl   $0x0,0x10(%ebp)
   10570:	75 07                	jne    10579 <find_pte+0x4a>
            return (pte_t*)0;
   10572:	b8 00 00 00 00       	mov    $0x0,%eax
   10577:	eb 64                	jmp    105dd <find_pte+0xae>
        }
        uint32_t pg_paddr=addr_alloc_page(&paddr_alloc,1);
   10579:	83 ec 08             	sub    $0x8,%esp
   1057c:	6a 01                	push   $0x1
   1057e:	68 00 80 01 00       	push   $0x18000
   10583:	e8 a7 fe ff ff       	call   1042f <addr_alloc_page>
   10588:	83 c4 10             	add    $0x10,%esp
   1058b:	89 45 ec             	mov    %eax,-0x14(%ebp)
        if(pg_paddr==0) return (pte_t*)0;
   1058e:	83 7d ec 00          	cmpl   $0x0,-0x14(%ebp)
   10592:	75 07                	jne    1059b <find_pte+0x6c>
   10594:	b8 00 00 00 00       	mov    $0x0,%eax
   10599:	eb 42                	jmp    105dd <find_pte+0xae>
        pde->v=pg_paddr | PTE_P | PDE_W | PDE_U;
   1059b:	8b 45 ec             	mov    -0x14(%ebp),%eax
   1059e:	83 c8 07             	or     $0x7,%eax
   105a1:	89 c2                	mov    %eax,%edx
   105a3:	8b 45 f0             	mov    -0x10(%ebp),%eax
   105a6:	89 10                	mov    %edx,(%eax)
        page_table=(pte_t*)pg_paddr;
   105a8:	8b 45 ec             	mov    -0x14(%ebp),%eax
   105ab:	89 45 f4             	mov    %eax,-0xc(%ebp)
        kernel_memset(page_table,0,MEM_PAGE_SIZE);
   105ae:	83 ec 04             	sub    $0x4,%esp
   105b1:	68 00 10 00 00       	push   $0x1000
   105b6:	6a 00                	push   $0x0
   105b8:	ff 75 f4             	pushl  -0xc(%ebp)
   105bb:	e8 9a 4e 00 00       	call   1545a <kernel_memset>
   105c0:	83 c4 10             	add    $0x10,%esp
    }

    return page_table+pte_index(vaddr);
   105c3:	83 ec 0c             	sub    $0xc,%esp
   105c6:	ff 75 0c             	pushl  0xc(%ebp)
   105c9:	e8 ca fd ff ff       	call   10398 <pte_index>
   105ce:	83 c4 10             	add    $0x10,%esp
   105d1:	8d 14 85 00 00 00 00 	lea    0x0(,%eax,4),%edx
   105d8:	8b 45 f4             	mov    -0xc(%ebp),%eax
   105db:	01 d0                	add    %edx,%eax
}
   105dd:	c9                   	leave  
   105de:	c3                   	ret    

000105df <memory_create_map>:

int memory_create_map(pde_t* page_dir,uint32_t vaddr,uint32_t paddr,int count,uint32_t perm){
   105df:	55                   	push   %ebp
   105e0:	89 e5                	mov    %esp,%ebp
   105e2:	83 ec 18             	sub    $0x18,%esp
    for(int i=0;i<count;i++){
   105e5:	c7 45 f4 00 00 00 00 	movl   $0x0,-0xc(%ebp)
   105ec:	eb 7b                	jmp    10669 <memory_create_map+0x8a>
        pte_t* pte=find_pte(page_dir,vaddr,1);
   105ee:	83 ec 04             	sub    $0x4,%esp
   105f1:	6a 01                	push   $0x1
   105f3:	ff 75 0c             	pushl  0xc(%ebp)
   105f6:	ff 75 08             	pushl  0x8(%ebp)
   105f9:	e8 31 ff ff ff       	call   1052f <find_pte>
   105fe:	83 c4 10             	add    $0x10,%esp
   10601:	89 45 f0             	mov    %eax,-0x10(%ebp)
        if(pte==(pte_t*)0){
   10604:	83 7d f0 00          	cmpl   $0x0,-0x10(%ebp)
   10608:	75 17                	jne    10621 <memory_create_map+0x42>
            log_printf("create pte failed.pte==0");
   1060a:	83 ec 0c             	sub    $0xc,%esp
   1060d:	68 40 5b 01 00       	push   $0x15b40
   10612:	e8 66 54 00 00       	call   15a7d <log_printf>
   10617:	83 c4 10             	add    $0x10,%esp
            return -1;
   1061a:	b8 ff ff ff ff       	mov    $0xffffffff,%eax
   1061f:	eb 59                	jmp    1067a <memory_create_map+0x9b>
        }
        ASSERT(pte->present==0);
   10621:	8b 45 f0             	mov    -0x10(%ebp),%eax
   10624:	0f b6 00             	movzbl (%eax),%eax
   10627:	83 e0 01             	and    $0x1,%eax
   1062a:	84 c0                	test   %al,%al
   1062c:	74 19                	je     10647 <memory_create_map+0x68>
   1062e:	68 59 5b 01 00       	push   $0x15b59
   10633:	68 58 5c 01 00       	push   $0x15c58
   10638:	6a 50                	push   $0x50
   1063a:	68 6c 5b 01 00       	push   $0x15b6c
   1063f:	e8 69 51 00 00       	call   157ad <panic>
   10644:	83 c4 10             	add    $0x10,%esp
        pte->v=paddr | perm | PTE_P;
   10647:	8b 45 10             	mov    0x10(%ebp),%eax
   1064a:	0b 45 18             	or     0x18(%ebp),%eax
   1064d:	83 c8 01             	or     $0x1,%eax
   10650:	89 c2                	mov    %eax,%edx
   10652:	8b 45 f0             	mov    -0x10(%ebp),%eax
   10655:	89 10                	mov    %edx,(%eax)
        vaddr+=MEM_PAGE_SIZE;
   10657:	81 45 0c 00 10 00 00 	addl   $0x1000,0xc(%ebp)
        paddr+=MEM_PAGE_SIZE;
   1065e:	81 45 10 00 10 00 00 	addl   $0x1000,0x10(%ebp)
    for(int i=0;i<count;i++){
   10665:	83 45 f4 01          	addl   $0x1,-0xc(%ebp)
   10669:	8b 45 f4             	mov    -0xc(%ebp),%eax
   1066c:	3b 45 14             	cmp    0x14(%ebp),%eax
   1066f:	0f 8c 79 ff ff ff    	jl     105ee <memory_create_map+0xf>
    }
    return 0;
   10675:	b8 00 00 00 00       	mov    $0x0,%eax
}
   1067a:	c9                   	leave  
   1067b:	c3                   	ret    

0001067c <create_kernel_table>:

void create_kernel_table(void){
   1067c:	55                   	push   %ebp
   1067d:	89 e5                	mov    %esp,%ebp
   1067f:	83 ec 28             	sub    $0x28,%esp
        {s_data,(void*)(MEM_EBDA_START-1),s_data,PTE_W},
        {(void*)CONSOLE_DISP_ADDR,(void*)CONSOLE_DISP_END,(void*)CONSOLE_DISP_ADDR, PTE_W},
        {(void*)MEM_EXT_START,(void*)MEM_EXT_END,(void*)MEM_EXT_START,PTE_W},
    };

    for(int i=0;i<sizeof(kernel_map)/sizeof(memory_map_t);i++){
   10682:	c7 45 f4 00 00 00 00 	movl   $0x0,-0xc(%ebp)
   10689:	e9 86 00 00 00       	jmp    10714 <create_kernel_table+0x98>
        memory_map_t* map=kernel_map+i;
   1068e:	8b 45 f4             	mov    -0xc(%ebp),%eax
   10691:	c1 e0 04             	shl    $0x4,%eax
   10694:	05 00 70 01 00       	add    $0x17000,%eax
   10699:	89 45 f0             	mov    %eax,-0x10(%ebp)

        uint32_t vstart=down2((uint32_t)map->vstart,MEM_PAGE_SIZE);
   1069c:	8b 45 f0             	mov    -0x10(%ebp),%eax
   1069f:	8b 00                	mov    (%eax),%eax
   106a1:	68 00 10 00 00       	push   $0x1000
   106a6:	50                   	push   %eax
   106a7:	e8 7f fc ff ff       	call   1032b <down2>
   106ac:	83 c4 08             	add    $0x8,%esp
   106af:	89 45 ec             	mov    %eax,-0x14(%ebp)
        uint32_t vend=up2((uint32_t)map->vend,MEM_PAGE_SIZE);
   106b2:	8b 45 f0             	mov    -0x10(%ebp),%eax
   106b5:	8b 40 04             	mov    0x4(%eax),%eax
   106b8:	68 00 10 00 00       	push   $0x1000
   106bd:	50                   	push   %eax
   106be:	e8 75 fc ff ff       	call   10338 <up2>
   106c3:	83 c4 08             	add    $0x8,%esp
   106c6:	89 45 e8             	mov    %eax,-0x18(%ebp)
        uint32_t paddr=down2((uint32_t)map->pstart,MEM_PAGE_SIZE);
   106c9:	8b 45 f0             	mov    -0x10(%ebp),%eax
   106cc:	8b 40 08             	mov    0x8(%eax),%eax
   106cf:	68 00 10 00 00       	push   $0x1000
   106d4:	50                   	push   %eax
   106d5:	e8 51 fc ff ff       	call   1032b <down2>
   106da:	83 c4 08             	add    $0x8,%esp
   106dd:	89 45 e4             	mov    %eax,-0x1c(%ebp)
        int page_count=(vend-vstart) / MEM_PAGE_SIZE;
   106e0:	8b 45 e8             	mov    -0x18(%ebp),%eax
   106e3:	2b 45 ec             	sub    -0x14(%ebp),%eax
   106e6:	c1 e8 0c             	shr    $0xc,%eax
   106e9:	89 45 e0             	mov    %eax,-0x20(%ebp)
        
        
        memory_create_map(kernel_page_dir,vstart,(uint32_t)map->pstart,page_count,map->perm);
   106ec:	8b 45 f0             	mov    -0x10(%ebp),%eax
   106ef:	8b 40 0c             	mov    0xc(%eax),%eax
   106f2:	8b 55 f0             	mov    -0x10(%ebp),%edx
   106f5:	8b 52 08             	mov    0x8(%edx),%edx
   106f8:	83 ec 0c             	sub    $0xc,%esp
   106fb:	50                   	push   %eax
   106fc:	ff 75 e0             	pushl  -0x20(%ebp)
   106ff:	52                   	push   %edx
   10700:	ff 75 ec             	pushl  -0x14(%ebp)
   10703:	68 00 90 01 00       	push   $0x19000
   10708:	e8 d2 fe ff ff       	call   105df <memory_create_map>
   1070d:	83 c4 20             	add    $0x20,%esp
    for(int i=0;i<sizeof(kernel_map)/sizeof(memory_map_t);i++){
   10710:	83 45 f4 01          	addl   $0x1,-0xc(%ebp)
   10714:	8b 45 f4             	mov    -0xc(%ebp),%eax
   10717:	83 f8 04             	cmp    $0x4,%eax
   1071a:	0f 86 6e ff ff ff    	jbe    1068e <create_kernel_table+0x12>
    }
}
   10720:	90                   	nop
   10721:	c9                   	leave  
   10722:	c3                   	ret    

00010723 <memory_init>:

void memory_init(boot_info_t* boot_info){
   10723:	55                   	push   %ebp
   10724:	89 e5                	mov    %esp,%ebp
   10726:	83 ec 18             	sub    $0x18,%esp
   extern uint8_t* mem_free_start;
   uint8_t* mem_free=(uint8_t*)&mem_free_start;
   10729:	c7 45 f4 6d c9 06 00 	movl   $0x6c96d,-0xc(%ebp)
   uint32_t mem_up1MB_free=total_mem_size(boot_info)-MEM_EXT_START;
   10730:	ff 75 08             	pushl  0x8(%ebp)
   10733:	e8 c0 fd ff ff       	call   104f8 <total_mem_size>
   10738:	83 c4 04             	add    $0x4,%esp
   1073b:	2d 00 00 10 00       	sub    $0x100000,%eax
   10740:	89 45 f0             	mov    %eax,-0x10(%ebp)
   mem_up1MB_free=down2(mem_up1MB_free,MEM_PAGE_SIZE);
   10743:	68 00 10 00 00       	push   $0x1000
   10748:	ff 75 f0             	pushl  -0x10(%ebp)
   1074b:	e8 db fb ff ff       	call   1032b <down2>
   10750:	83 c4 08             	add    $0x8,%esp
   10753:	89 45 f0             	mov    %eax,-0x10(%ebp)
   addr_alloc_init(&paddr_alloc,mem_free,MEM_EXT_START,mem_up1MB_free,MEM_PAGE_SIZE);
   10756:	83 ec 0c             	sub    $0xc,%esp
   10759:	68 00 10 00 00       	push   $0x1000
   1075e:	ff 75 f0             	pushl  -0x10(%ebp)
   10761:	68 00 00 10 00       	push   $0x100000
   10766:	ff 75 f4             	pushl  -0xc(%ebp)
   10769:	68 00 80 01 00       	push   $0x18000
   1076e:	e8 64 fc ff ff       	call   103d7 <addr_alloc_init>
   10773:	83 c4 20             	add    $0x20,%esp
   mem_free+=bitmap_byte_count(paddr_alloc.size/MEM_PAGE_SIZE);
   10776:	a1 20 80 01 00       	mov    0x18020,%eax
   1077b:	c1 e8 0c             	shr    $0xc,%eax
   1077e:	83 ec 0c             	sub    $0xc,%esp
   10781:	50                   	push   %eax
   10782:	e8 a0 48 00 00       	call   15027 <bitmap_byte_count>
   10787:	83 c4 10             	add    $0x10,%esp
   1078a:	01 45 f4             	add    %eax,-0xc(%ebp)
   ASSERT(mem_free < (uint8_t *)MEM_EBDA_START);
   1078d:	81 7d f4 ff ff 07 00 	cmpl   $0x7ffff,-0xc(%ebp)
   10794:	76 19                	jbe    107af <memory_init+0x8c>
   10796:	68 a4 5b 01 00       	push   $0x15ba4
   1079b:	68 6c 5c 01 00       	push   $0x15c6c
   107a0:	6a 76                	push   $0x76
   107a2:	68 6c 5b 01 00       	push   $0x15b6c
   107a7:	e8 01 50 00 00       	call   157ad <panic>
   107ac:	83 c4 10             	add    $0x10,%esp
   create_kernel_table();
   107af:	e8 c8 fe ff ff       	call   1067c <create_kernel_table>
   mmu_set_page_dir((uint32_t)kernel_page_dir);
   107b4:	b8 00 90 01 00       	mov    $0x19000,%eax
   107b9:	83 ec 0c             	sub    $0xc,%esp
   107bc:	50                   	push   %eax
   107bd:	e8 8d fb ff ff       	call   1034f <mmu_set_page_dir>
   107c2:	83 c4 10             	add    $0x10,%esp
}
   107c5:	90                   	nop
   107c6:	c9                   	leave  
   107c7:	c3                   	ret    

000107c8 <memory_create_uvm>:

uint32_t memory_create_uvm(void){
   107c8:	55                   	push   %ebp
   107c9:	89 e5                	mov    %esp,%ebp
   107cb:	83 ec 18             	sub    $0x18,%esp
    pde_t* page_dir=(pde_t*)addr_alloc_page(&paddr_alloc,1);
   107ce:	83 ec 08             	sub    $0x8,%esp
   107d1:	6a 01                	push   $0x1
   107d3:	68 00 80 01 00       	push   $0x18000
   107d8:	e8 52 fc ff ff       	call   1042f <addr_alloc_page>
   107dd:	83 c4 10             	add    $0x10,%esp
   107e0:	89 45 f0             	mov    %eax,-0x10(%ebp)
    if(page_dir==0){
   107e3:	83 7d f0 00          	cmpl   $0x0,-0x10(%ebp)
   107e7:	75 07                	jne    107f0 <memory_create_uvm+0x28>
        return 0;
   107e9:	b8 00 00 00 00       	mov    $0x0,%eax
   107ee:	eb 5b                	jmp    1084b <memory_create_uvm+0x83>
    }
    kernel_memset((void*)page_dir,0,MEM_PAGE_SIZE);
   107f0:	83 ec 04             	sub    $0x4,%esp
   107f3:	68 00 10 00 00       	push   $0x1000
   107f8:	6a 00                	push   $0x0
   107fa:	ff 75 f0             	pushl  -0x10(%ebp)
   107fd:	e8 58 4c 00 00       	call   1545a <kernel_memset>
   10802:	83 c4 10             	add    $0x10,%esp
    uint32_t user_pde_start=pde_index(MEMORY_TASK_BASE);
   10805:	83 ec 0c             	sub    $0xc,%esp
   10808:	68 00 00 00 80       	push   $0x80000000
   1080d:	e8 7b fb ff ff       	call   1038d <pde_index>
   10812:	83 c4 10             	add    $0x10,%esp
   10815:	89 45 ec             	mov    %eax,-0x14(%ebp)
    for(int i=0;i<user_pde_start;i++){
   10818:	c7 45 f4 00 00 00 00 	movl   $0x0,-0xc(%ebp)
   1081f:	eb 1f                	jmp    10840 <memory_create_uvm+0x78>
        page_dir[i].v=kernel_page_dir[i].v;
   10821:	8b 45 f4             	mov    -0xc(%ebp),%eax
   10824:	8d 14 85 00 00 00 00 	lea    0x0(,%eax,4),%edx
   1082b:	8b 45 f0             	mov    -0x10(%ebp),%eax
   1082e:	01 c2                	add    %eax,%edx
   10830:	8b 45 f4             	mov    -0xc(%ebp),%eax
   10833:	8b 04 85 00 90 01 00 	mov    0x19000(,%eax,4),%eax
   1083a:	89 02                	mov    %eax,(%edx)
    for(int i=0;i<user_pde_start;i++){
   1083c:	83 45 f4 01          	addl   $0x1,-0xc(%ebp)
   10840:	8b 45 f4             	mov    -0xc(%ebp),%eax
   10843:	39 45 ec             	cmp    %eax,-0x14(%ebp)
   10846:	77 d9                	ja     10821 <memory_create_uvm+0x59>
    }

    return (uint32_t)page_dir;
   10848:	8b 45 f0             	mov    -0x10(%ebp),%eax
}
   1084b:	c9                   	leave  
   1084c:	c3                   	ret    

0001084d <memory_alloc_for_page_dir>:

int memory_alloc_for_page_dir(uint32_t page_dir,uint32_t vaddr,uint32_t size,int perm){
   1084d:	55                   	push   %ebp
   1084e:	89 e5                	mov    %esp,%ebp
   10850:	83 ec 28             	sub    $0x28,%esp
    uint32_t curr_vaddr=vaddr;
   10853:	8b 45 0c             	mov    0xc(%ebp),%eax
   10856:	89 45 f4             	mov    %eax,-0xc(%ebp)
    int page_count=up2(size,MEM_PAGE_SIZE) / MEM_PAGE_SIZE;
   10859:	68 00 10 00 00       	push   $0x1000
   1085e:	ff 75 10             	pushl  0x10(%ebp)
   10861:	e8 d2 fa ff ff       	call   10338 <up2>
   10866:	83 c4 08             	add    $0x8,%esp
   10869:	c1 e8 0c             	shr    $0xc,%eax
   1086c:	89 45 ec             	mov    %eax,-0x14(%ebp)
    for(int i=0;i<page_count;i++){
   1086f:	c7 45 f0 00 00 00 00 	movl   $0x0,-0x10(%ebp)
   10876:	eb 7b                	jmp    108f3 <memory_alloc_for_page_dir+0xa6>
        uint32_t paddr=addr_alloc_page(&paddr_alloc,1);
   10878:	83 ec 08             	sub    $0x8,%esp
   1087b:	6a 01                	push   $0x1
   1087d:	68 00 80 01 00       	push   $0x18000
   10882:	e8 a8 fb ff ff       	call   1042f <addr_alloc_page>
   10887:	83 c4 10             	add    $0x10,%esp
   1088a:	89 45 e8             	mov    %eax,-0x18(%ebp)
        if(paddr==0){
   1088d:	83 7d e8 00          	cmpl   $0x0,-0x18(%ebp)
   10891:	75 17                	jne    108aa <memory_alloc_for_page_dir+0x5d>
            log_printf("mem alloc failed. no memory");
   10893:	83 ec 0c             	sub    $0xc,%esp
   10896:	68 c9 5b 01 00       	push   $0x15bc9
   1089b:	e8 dd 51 00 00       	call   15a7d <log_printf>
   108a0:	83 c4 10             	add    $0x10,%esp
            return 0;
   108a3:	b8 00 00 00 00       	mov    $0x0,%eax
   108a8:	eb 55                	jmp    108ff <memory_alloc_for_page_dir+0xb2>
        }

        int err=memory_create_map((pde_t*)page_dir,curr_vaddr,paddr,1,perm);
   108aa:	8b 55 14             	mov    0x14(%ebp),%edx
   108ad:	8b 45 08             	mov    0x8(%ebp),%eax
   108b0:	83 ec 0c             	sub    $0xc,%esp
   108b3:	52                   	push   %edx
   108b4:	6a 01                	push   $0x1
   108b6:	ff 75 e8             	pushl  -0x18(%ebp)
   108b9:	ff 75 f4             	pushl  -0xc(%ebp)
   108bc:	50                   	push   %eax
   108bd:	e8 1d fd ff ff       	call   105df <memory_create_map>
   108c2:	83 c4 20             	add    $0x20,%esp
   108c5:	89 45 e4             	mov    %eax,-0x1c(%ebp)
        if(err < 0){
   108c8:	83 7d e4 00          	cmpl   $0x0,-0x1c(%ebp)
   108cc:	79 1a                	jns    108e8 <memory_alloc_for_page_dir+0x9b>
            log_printf("create memory failed. err=%d",err);
   108ce:	83 ec 08             	sub    $0x8,%esp
   108d1:	ff 75 e4             	pushl  -0x1c(%ebp)
   108d4:	68 e5 5b 01 00       	push   $0x15be5
   108d9:	e8 9f 51 00 00       	call   15a7d <log_printf>
   108de:	83 c4 10             	add    $0x10,%esp
            return 0;
   108e1:	b8 00 00 00 00       	mov    $0x0,%eax
   108e6:	eb 17                	jmp    108ff <memory_alloc_for_page_dir+0xb2>
        }

        curr_vaddr+=MEM_PAGE_SIZE;
   108e8:	81 45 f4 00 10 00 00 	addl   $0x1000,-0xc(%ebp)
    for(int i=0;i<page_count;i++){
   108ef:	83 45 f0 01          	addl   $0x1,-0x10(%ebp)
   108f3:	8b 45 f0             	mov    -0x10(%ebp),%eax
   108f6:	3b 45 ec             	cmp    -0x14(%ebp),%eax
   108f9:	0f 8c 79 ff ff ff    	jl     10878 <memory_alloc_for_page_dir+0x2b>

    }
}
   108ff:	c9                   	leave  
   10900:	c3                   	ret    

00010901 <memory_alloc_page_for>:

int memory_alloc_page_for(uint32_t addr,uint32_t size,int perm){
   10901:	55                   	push   %ebp
   10902:	89 e5                	mov    %esp,%ebp
   10904:	83 ec 08             	sub    $0x8,%esp
    return memory_alloc_for_page_dir(task_current()->tss.cr3,addr,size,perm);
   10907:	e8 d0 0c 00 00       	call   115dc <task_current>
   1090c:	8b 80 74 02 00 00    	mov    0x274(%eax),%eax
   10912:	ff 75 10             	pushl  0x10(%ebp)
   10915:	ff 75 0c             	pushl  0xc(%ebp)
   10918:	ff 75 08             	pushl  0x8(%ebp)
   1091b:	50                   	push   %eax
   1091c:	e8 2c ff ff ff       	call   1084d <memory_alloc_for_page_dir>
   10921:	83 c4 10             	add    $0x10,%esp
}
   10924:	c9                   	leave  
   10925:	c3                   	ret    

00010926 <memory_alloc_page>:

uint32_t memory_alloc_page(void){
   10926:	55                   	push   %ebp
   10927:	89 e5                	mov    %esp,%ebp
   10929:	83 ec 18             	sub    $0x18,%esp
    uint32_t addr=addr_alloc_page(&paddr_alloc,1);
   1092c:	83 ec 08             	sub    $0x8,%esp
   1092f:	6a 01                	push   $0x1
   10931:	68 00 80 01 00       	push   $0x18000
   10936:	e8 f4 fa ff ff       	call   1042f <addr_alloc_page>
   1093b:	83 c4 10             	add    $0x10,%esp
   1093e:	89 45 f4             	mov    %eax,-0xc(%ebp)
    return addr;
   10941:	8b 45 f4             	mov    -0xc(%ebp),%eax
}
   10944:	c9                   	leave  
   10945:	c3                   	ret    

00010946 <curr_page_dir>:

static pde_t* curr_page_dir(void){
   10946:	55                   	push   %ebp
   10947:	89 e5                	mov    %esp,%ebp
   10949:	83 ec 08             	sub    $0x8,%esp
    return (pde_t*)(task_current()->tss.cr3);
   1094c:	e8 8b 0c 00 00       	call   115dc <task_current>
   10951:	8b 80 74 02 00 00    	mov    0x274(%eax),%eax
}
   10957:	c9                   	leave  
   10958:	c3                   	ret    

00010959 <memory_free_page>:

void memory_free_page(uint32_t addr){
   10959:	55                   	push   %ebp
   1095a:	89 e5                	mov    %esp,%ebp
   1095c:	83 ec 18             	sub    $0x18,%esp
    if(addr < MEMORY_TASK_BASE){
   1095f:	8b 45 08             	mov    0x8(%ebp),%eax
   10962:	85 c0                	test   %eax,%eax
   10964:	78 17                	js     1097d <memory_free_page+0x24>
        addr_free_page(&paddr_alloc,addr,1);
   10966:	83 ec 04             	sub    $0x4,%esp
   10969:	6a 01                	push   $0x1
   1096b:	ff 75 08             	pushl  0x8(%ebp)
   1096e:	68 00 80 01 00       	push   $0x18000
   10973:	e8 1e fb ff ff       	call   10496 <addr_free_page>
   10978:	83 c4 10             	add    $0x10,%esp
        pte_t* pte=find_pte(curr_page_dir(),addr,0);
        ASSERT((pte==(pte_t*)0) &&  pte->present);
        addr_free_page(&paddr_alloc,pte_paddr(pte),1);
        pte->v=0;
    }
}
   1097b:	eb 72                	jmp    109ef <memory_free_page+0x96>
        pte_t* pte=find_pte(curr_page_dir(),addr,0);
   1097d:	e8 c4 ff ff ff       	call   10946 <curr_page_dir>
   10982:	83 ec 04             	sub    $0x4,%esp
   10985:	6a 00                	push   $0x0
   10987:	ff 75 08             	pushl  0x8(%ebp)
   1098a:	50                   	push   %eax
   1098b:	e8 9f fb ff ff       	call   1052f <find_pte>
   10990:	83 c4 10             	add    $0x10,%esp
   10993:	89 45 f4             	mov    %eax,-0xc(%ebp)
        ASSERT((pte==(pte_t*)0) &&  pte->present);
   10996:	83 7d f4 00          	cmpl   $0x0,-0xc(%ebp)
   1099a:	75 0d                	jne    109a9 <memory_free_page+0x50>
   1099c:	8b 45 f4             	mov    -0xc(%ebp),%eax
   1099f:	0f b6 00             	movzbl (%eax),%eax
   109a2:	83 e0 01             	and    $0x1,%eax
   109a5:	84 c0                	test   %al,%al
   109a7:	75 1c                	jne    109c5 <memory_free_page+0x6c>
   109a9:	68 04 5c 01 00       	push   $0x15c04
   109ae:	68 78 5c 01 00       	push   $0x15c78
   109b3:	68 b1 00 00 00       	push   $0xb1
   109b8:	68 6c 5b 01 00       	push   $0x15b6c
   109bd:	e8 eb 4d 00 00       	call   157ad <panic>
   109c2:	83 c4 10             	add    $0x10,%esp
        addr_free_page(&paddr_alloc,pte_paddr(pte),1);
   109c5:	83 ec 0c             	sub    $0xc,%esp
   109c8:	ff 75 f4             	pushl  -0xc(%ebp)
   109cb:	e8 e8 f9 ff ff       	call   103b8 <pte_paddr>
   109d0:	83 c4 10             	add    $0x10,%esp
   109d3:	83 ec 04             	sub    $0x4,%esp
   109d6:	6a 01                	push   $0x1
   109d8:	50                   	push   %eax
   109d9:	68 00 80 01 00       	push   $0x18000
   109de:	e8 b3 fa ff ff       	call   10496 <addr_free_page>
   109e3:	83 c4 10             	add    $0x10,%esp
        pte->v=0;
   109e6:	8b 45 f4             	mov    -0xc(%ebp),%eax
   109e9:	c7 00 00 00 00 00    	movl   $0x0,(%eax)
}
   109ef:	90                   	nop
   109f0:	c9                   	leave  
   109f1:	c3                   	ret    

000109f2 <memory_destroy_uvm>:

void memory_destroy_uvm(uint32_t page_dir){
   109f2:	55                   	push   %ebp
   109f3:	89 e5                	mov    %esp,%ebp
   109f5:	83 ec 28             	sub    $0x28,%esp
    uint32_t user_pde_start=pde_index(MEMORY_TASK_BASE);
   109f8:	68 00 00 00 80       	push   $0x80000000
   109fd:	e8 8b f9 ff ff       	call   1038d <pde_index>
   10a02:	83 c4 04             	add    $0x4,%esp
   10a05:	89 45 e4             	mov    %eax,-0x1c(%ebp)
    pde_t* pde=(pde_t*)page_dir+user_pde_start;
   10a08:	8b 45 e4             	mov    -0x1c(%ebp),%eax
   10a0b:	8d 14 85 00 00 00 00 	lea    0x0(,%eax,4),%edx
   10a12:	8b 45 08             	mov    0x8(%ebp),%eax
   10a15:	01 d0                	add    %edx,%eax
   10a17:	89 45 f4             	mov    %eax,-0xc(%ebp)

    for(int i=user_pde_start;i<PDE_CNT;i++,pde++){
   10a1a:	8b 45 e4             	mov    -0x1c(%ebp),%eax
   10a1d:	89 45 f0             	mov    %eax,-0x10(%ebp)
   10a20:	e9 8f 00 00 00       	jmp    10ab4 <memory_destroy_uvm+0xc2>
        if(!pde->present){
   10a25:	8b 45 f4             	mov    -0xc(%ebp),%eax
   10a28:	0f b6 00             	movzbl (%eax),%eax
   10a2b:	83 e0 01             	and    $0x1,%eax
   10a2e:	84 c0                	test   %al,%al
   10a30:	74 79                	je     10aab <memory_destroy_uvm+0xb9>
            continue;
        }

        pte_t* pte=(pte_t*)pde_paddr(pde);
   10a32:	ff 75 f4             	pushl  -0xc(%ebp)
   10a35:	e8 6e f9 ff ff       	call   103a8 <pde_paddr>
   10a3a:	83 c4 04             	add    $0x4,%esp
   10a3d:	89 45 ec             	mov    %eax,-0x14(%ebp)
        for(int j=0;j<PTE_CNT;j++,pte++){
   10a40:	c7 45 e8 00 00 00 00 	movl   $0x0,-0x18(%ebp)
   10a47:	eb 36                	jmp    10a7f <memory_destroy_uvm+0x8d>
            if(!pte->present){
   10a49:	8b 45 ec             	mov    -0x14(%ebp),%eax
   10a4c:	0f b6 00             	movzbl (%eax),%eax
   10a4f:	83 e0 01             	and    $0x1,%eax
   10a52:	84 c0                	test   %al,%al
   10a54:	74 20                	je     10a76 <memory_destroy_uvm+0x84>
                continue;
            }

            addr_free_page(&paddr_alloc,pte_paddr(pte),1);
   10a56:	ff 75 ec             	pushl  -0x14(%ebp)
   10a59:	e8 5a f9 ff ff       	call   103b8 <pte_paddr>
   10a5e:	83 c4 04             	add    $0x4,%esp
   10a61:	83 ec 04             	sub    $0x4,%esp
   10a64:	6a 01                	push   $0x1
   10a66:	50                   	push   %eax
   10a67:	68 00 80 01 00       	push   $0x18000
   10a6c:	e8 25 fa ff ff       	call   10496 <addr_free_page>
   10a71:	83 c4 10             	add    $0x10,%esp
   10a74:	eb 01                	jmp    10a77 <memory_destroy_uvm+0x85>
                continue;
   10a76:	90                   	nop
        for(int j=0;j<PTE_CNT;j++,pte++){
   10a77:	83 45 e8 01          	addl   $0x1,-0x18(%ebp)
   10a7b:	83 45 ec 04          	addl   $0x4,-0x14(%ebp)
   10a7f:	81 7d e8 ff 03 00 00 	cmpl   $0x3ff,-0x18(%ebp)
   10a86:	7e c1                	jle    10a49 <memory_destroy_uvm+0x57>
        }

        addr_free_page(&paddr_alloc,(uint32_t)pde_paddr(pde),1);
   10a88:	83 ec 0c             	sub    $0xc,%esp
   10a8b:	ff 75 f4             	pushl  -0xc(%ebp)
   10a8e:	e8 15 f9 ff ff       	call   103a8 <pde_paddr>
   10a93:	83 c4 10             	add    $0x10,%esp
   10a96:	83 ec 04             	sub    $0x4,%esp
   10a99:	6a 01                	push   $0x1
   10a9b:	50                   	push   %eax
   10a9c:	68 00 80 01 00       	push   $0x18000
   10aa1:	e8 f0 f9 ff ff       	call   10496 <addr_free_page>
   10aa6:	83 c4 10             	add    $0x10,%esp
   10aa9:	eb 01                	jmp    10aac <memory_destroy_uvm+0xba>
            continue;
   10aab:	90                   	nop
    for(int i=user_pde_start;i<PDE_CNT;i++,pde++){
   10aac:	83 45 f0 01          	addl   $0x1,-0x10(%ebp)
   10ab0:	83 45 f4 04          	addl   $0x4,-0xc(%ebp)
   10ab4:	81 7d f0 ff 03 00 00 	cmpl   $0x3ff,-0x10(%ebp)
   10abb:	0f 8e 64 ff ff ff    	jle    10a25 <memory_destroy_uvm+0x33>
    }

    addr_free_page(&paddr_alloc,page_dir,1);
   10ac1:	83 ec 04             	sub    $0x4,%esp
   10ac4:	6a 01                	push   $0x1
   10ac6:	ff 75 08             	pushl  0x8(%ebp)
   10ac9:	68 00 80 01 00       	push   $0x18000
   10ace:	e8 c3 f9 ff ff       	call   10496 <addr_free_page>
   10ad3:	83 c4 10             	add    $0x10,%esp
}
   10ad6:	90                   	nop
   10ad7:	c9                   	leave  
   10ad8:	c3                   	ret    

00010ad9 <memory_copy_uvm>:

uint32_t memory_copy_uvm(uint32_t page_dir){
   10ad9:	55                   	push   %ebp
   10ada:	89 e5                	mov    %esp,%ebp
   10adc:	83 ec 38             	sub    $0x38,%esp
    uint32_t to_page_dir=memory_create_uvm();
   10adf:	e8 e4 fc ff ff       	call   107c8 <memory_create_uvm>
   10ae4:	89 45 e4             	mov    %eax,-0x1c(%ebp)
    if(to_page_dir == 0){
   10ae7:	83 7d e4 00          	cmpl   $0x0,-0x1c(%ebp)
   10aeb:	0f 84 1b 01 00 00    	je     10c0c <memory_copy_uvm+0x133>
        goto copy_uvm_failed;
    }

    uint32_t user_pde_start=pde_index(MEMORY_TASK_BASE);
   10af1:	83 ec 0c             	sub    $0xc,%esp
   10af4:	68 00 00 00 80       	push   $0x80000000
   10af9:	e8 8f f8 ff ff       	call   1038d <pde_index>
   10afe:	83 c4 10             	add    $0x10,%esp
   10b01:	89 45 e0             	mov    %eax,-0x20(%ebp)
    pde_t* pde=(pde_t*)page_dir+user_pde_start;
   10b04:	8b 45 e0             	mov    -0x20(%ebp),%eax
   10b07:	8d 14 85 00 00 00 00 	lea    0x0(,%eax,4),%edx
   10b0e:	8b 45 08             	mov    0x8(%ebp),%eax
   10b11:	01 d0                	add    %edx,%eax
   10b13:	89 45 f4             	mov    %eax,-0xc(%ebp)

    for(int i=user_pde_start;i<PDE_CNT;i++,pde++){
   10b16:	8b 45 e0             	mov    -0x20(%ebp),%eax
   10b19:	89 45 f0             	mov    %eax,-0x10(%ebp)
   10b1c:	e9 d9 00 00 00       	jmp    10bfa <memory_copy_uvm+0x121>
        if(!pde->present){
   10b21:	8b 45 f4             	mov    -0xc(%ebp),%eax
   10b24:	0f b6 00             	movzbl (%eax),%eax
   10b27:	83 e0 01             	and    $0x1,%eax
   10b2a:	84 c0                	test   %al,%al
   10b2c:	0f 84 bf 00 00 00    	je     10bf1 <memory_copy_uvm+0x118>
            continue;
        }

        pte_t*pte=(pte_t*)pde_paddr(pde);
   10b32:	83 ec 0c             	sub    $0xc,%esp
   10b35:	ff 75 f4             	pushl  -0xc(%ebp)
   10b38:	e8 6b f8 ff ff       	call   103a8 <pde_paddr>
   10b3d:	83 c4 10             	add    $0x10,%esp
   10b40:	89 45 ec             	mov    %eax,-0x14(%ebp)
        for(int j=0;j<PTE_CNT;j++,pte++){
   10b43:	c7 45 e8 00 00 00 00 	movl   $0x0,-0x18(%ebp)
   10b4a:	e9 93 00 00 00       	jmp    10be2 <memory_copy_uvm+0x109>
            if(!pte->present){
   10b4f:	8b 45 ec             	mov    -0x14(%ebp),%eax
   10b52:	0f b6 00             	movzbl (%eax),%eax
   10b55:	83 e0 01             	and    $0x1,%eax
   10b58:	84 c0                	test   %al,%al
   10b5a:	74 7d                	je     10bd9 <memory_copy_uvm+0x100>
                continue;
            }

            uint32_t page=addr_alloc_page(&paddr_alloc,1);
   10b5c:	83 ec 08             	sub    $0x8,%esp
   10b5f:	6a 01                	push   $0x1
   10b61:	68 00 80 01 00       	push   $0x18000
   10b66:	e8 c4 f8 ff ff       	call   1042f <addr_alloc_page>
   10b6b:	83 c4 10             	add    $0x10,%esp
   10b6e:	89 45 dc             	mov    %eax,-0x24(%ebp)
            if(page==0) {
   10b71:	83 7d dc 00          	cmpl   $0x0,-0x24(%ebp)
   10b75:	0f 84 94 00 00 00    	je     10c0f <memory_copy_uvm+0x136>
                goto copy_uvm_failed;
            }
            uint32_t vaddr=(i<<22) | (j<<12);
   10b7b:	8b 45 f0             	mov    -0x10(%ebp),%eax
   10b7e:	c1 e0 16             	shl    $0x16,%eax
   10b81:	89 c2                	mov    %eax,%edx
   10b83:	8b 45 e8             	mov    -0x18(%ebp),%eax
   10b86:	c1 e0 0c             	shl    $0xc,%eax
   10b89:	09 d0                	or     %edx,%eax
   10b8b:	89 45 d8             	mov    %eax,-0x28(%ebp)
            int err=memory_create_map((pde_t*)to_page_dir,vaddr,page,1,get_pte_perm(pte));
   10b8e:	83 ec 0c             	sub    $0xc,%esp
   10b91:	ff 75 ec             	pushl  -0x14(%ebp)
   10b94:	e8 2f f8 ff ff       	call   103c8 <get_pte_perm>
   10b99:	83 c4 10             	add    $0x10,%esp
   10b9c:	89 c2                	mov    %eax,%edx
   10b9e:	8b 45 e4             	mov    -0x1c(%ebp),%eax
   10ba1:	83 ec 0c             	sub    $0xc,%esp
   10ba4:	52                   	push   %edx
   10ba5:	6a 01                	push   $0x1
   10ba7:	ff 75 dc             	pushl  -0x24(%ebp)
   10baa:	ff 75 d8             	pushl  -0x28(%ebp)
   10bad:	50                   	push   %eax
   10bae:	e8 2c fa ff ff       	call   105df <memory_create_map>
   10bb3:	83 c4 20             	add    $0x20,%esp
   10bb6:	89 45 d4             	mov    %eax,-0x2c(%ebp)
            if(err < 0){
   10bb9:	83 7d d4 00          	cmpl   $0x0,-0x2c(%ebp)
   10bbd:	78 53                	js     10c12 <memory_copy_uvm+0x139>
                goto copy_uvm_failed;
            }

            kernel_memcpy((void*)page,(void*)vaddr,MEM_PAGE_SIZE);
   10bbf:	8b 55 d8             	mov    -0x28(%ebp),%edx
   10bc2:	8b 45 dc             	mov    -0x24(%ebp),%eax
   10bc5:	83 ec 04             	sub    $0x4,%esp
   10bc8:	68 00 10 00 00       	push   $0x1000
   10bcd:	52                   	push   %edx
   10bce:	50                   	push   %eax
   10bcf:	e8 37 48 00 00       	call   1540b <kernel_memcpy>
   10bd4:	83 c4 10             	add    $0x10,%esp
   10bd7:	eb 01                	jmp    10bda <memory_copy_uvm+0x101>
                continue;
   10bd9:	90                   	nop
        for(int j=0;j<PTE_CNT;j++,pte++){
   10bda:	83 45 e8 01          	addl   $0x1,-0x18(%ebp)
   10bde:	83 45 ec 04          	addl   $0x4,-0x14(%ebp)
   10be2:	81 7d e8 ff 03 00 00 	cmpl   $0x3ff,-0x18(%ebp)
   10be9:	0f 8e 60 ff ff ff    	jle    10b4f <memory_copy_uvm+0x76>
   10bef:	eb 01                	jmp    10bf2 <memory_copy_uvm+0x119>
            continue;
   10bf1:	90                   	nop
    for(int i=user_pde_start;i<PDE_CNT;i++,pde++){
   10bf2:	83 45 f0 01          	addl   $0x1,-0x10(%ebp)
   10bf6:	83 45 f4 04          	addl   $0x4,-0xc(%ebp)
   10bfa:	81 7d f0 ff 03 00 00 	cmpl   $0x3ff,-0x10(%ebp)
   10c01:	0f 8e 1a ff ff ff    	jle    10b21 <memory_copy_uvm+0x48>
        }
    }

    return to_page_dir;
   10c07:	8b 45 e4             	mov    -0x1c(%ebp),%eax
   10c0a:	eb 20                	jmp    10c2c <memory_copy_uvm+0x153>
        goto copy_uvm_failed;
   10c0c:	90                   	nop
   10c0d:	eb 04                	jmp    10c13 <memory_copy_uvm+0x13a>
                goto copy_uvm_failed;
   10c0f:	90                   	nop
   10c10:	eb 01                	jmp    10c13 <memory_copy_uvm+0x13a>
                goto copy_uvm_failed;
   10c12:	90                   	nop
copy_uvm_failed:
    if(to_page_dir){
   10c13:	83 7d e4 00          	cmpl   $0x0,-0x1c(%ebp)
   10c17:	74 0e                	je     10c27 <memory_copy_uvm+0x14e>
        memory_destroy_uvm(to_page_dir);
   10c19:	83 ec 0c             	sub    $0xc,%esp
   10c1c:	ff 75 e4             	pushl  -0x1c(%ebp)
   10c1f:	e8 ce fd ff ff       	call   109f2 <memory_destroy_uvm>
   10c24:	83 c4 10             	add    $0x10,%esp
    }
    return -1;
   10c27:	b8 ff ff ff ff       	mov    $0xffffffff,%eax
}
   10c2c:	c9                   	leave  
   10c2d:	c3                   	ret    

00010c2e <memory_get_paddr>:
 * @brief 获取页表项对应的物理地址
 * @param page_dir 获取该页物理地址所使用的页表
 * @param vaddr 虚拟地址
 * @return 成功返回物理地址，失败返回0
*/
uint32_t memory_get_paddr(uint32_t page_dir,uint32_t vaddr){
   10c2e:	55                   	push   %ebp
   10c2f:	89 e5                	mov    %esp,%ebp
   10c31:	83 ec 18             	sub    $0x18,%esp
    pte_t* pte=find_pte((pde_t*)page_dir,vaddr,0);
   10c34:	8b 45 08             	mov    0x8(%ebp),%eax
   10c37:	83 ec 04             	sub    $0x4,%esp
   10c3a:	6a 00                	push   $0x0
   10c3c:	ff 75 0c             	pushl  0xc(%ebp)
   10c3f:	50                   	push   %eax
   10c40:	e8 ea f8 ff ff       	call   1052f <find_pte>
   10c45:	83 c4 10             	add    $0x10,%esp
   10c48:	89 45 f4             	mov    %eax,-0xc(%ebp)
    if(!pte){
   10c4b:	83 7d f4 00          	cmpl   $0x0,-0xc(%ebp)
   10c4f:	75 07                	jne    10c58 <memory_get_paddr+0x2a>
        return 0;
   10c51:	b8 00 00 00 00       	mov    $0x0,%eax
   10c56:	eb 1a                	jmp    10c72 <memory_get_paddr+0x44>
    }

    return pte_paddr(pte) + (vaddr & (MEM_PAGE_SIZE-1));
   10c58:	83 ec 0c             	sub    $0xc,%esp
   10c5b:	ff 75 f4             	pushl  -0xc(%ebp)
   10c5e:	e8 55 f7 ff ff       	call   103b8 <pte_paddr>
   10c63:	83 c4 10             	add    $0x10,%esp
   10c66:	89 c2                	mov    %eax,%edx
   10c68:	8b 45 0c             	mov    0xc(%ebp),%eax
   10c6b:	25 ff 0f 00 00       	and    $0xfff,%eax
   10c70:	01 d0                	add    %edx,%eax
}
   10c72:	c9                   	leave  
   10c73:	c3                   	ret    

00010c74 <memory_copy_uvm_data>:

int memory_copy_uvm_data(uint32_t to,uint32_t page_dir,uint32_t from,uint32_t size){
   10c74:	55                   	push   %ebp
   10c75:	89 e5                	mov    %esp,%ebp
   10c77:	83 ec 18             	sub    $0x18,%esp
    while(size > 0){
   10c7a:	eb 6d                	jmp    10ce9 <memory_copy_uvm_data+0x75>
        uint32_t to_paddr=memory_get_paddr(page_dir,to);
   10c7c:	83 ec 08             	sub    $0x8,%esp
   10c7f:	ff 75 08             	pushl  0x8(%ebp)
   10c82:	ff 75 0c             	pushl  0xc(%ebp)
   10c85:	e8 a4 ff ff ff       	call   10c2e <memory_get_paddr>
   10c8a:	83 c4 10             	add    $0x10,%esp
   10c8d:	89 45 f0             	mov    %eax,-0x10(%ebp)
        if(to_paddr == 0){
   10c90:	83 7d f0 00          	cmpl   $0x0,-0x10(%ebp)
   10c94:	75 07                	jne    10c9d <memory_copy_uvm_data+0x29>
            return -1;
   10c96:	b8 ff ff ff ff       	mov    $0xffffffff,%eax
   10c9b:	eb 57                	jmp    10cf4 <memory_copy_uvm_data+0x80>
        }

        uint32_t offset_in_page=to_paddr & (MEM_PAGE_SIZE-1);
   10c9d:	8b 45 f0             	mov    -0x10(%ebp),%eax
   10ca0:	25 ff 0f 00 00       	and    $0xfff,%eax
   10ca5:	89 45 ec             	mov    %eax,-0x14(%ebp)
        uint32_t curr_size=MEM_PAGE_SIZE-offset_in_page;
   10ca8:	b8 00 10 00 00       	mov    $0x1000,%eax
   10cad:	2b 45 ec             	sub    -0x14(%ebp),%eax
   10cb0:	89 45 f4             	mov    %eax,-0xc(%ebp)
        if(curr_size > size){
   10cb3:	8b 45 f4             	mov    -0xc(%ebp),%eax
   10cb6:	3b 45 14             	cmp    0x14(%ebp),%eax
   10cb9:	76 06                	jbe    10cc1 <memory_copy_uvm_data+0x4d>
            curr_size = size;
   10cbb:	8b 45 14             	mov    0x14(%ebp),%eax
   10cbe:	89 45 f4             	mov    %eax,-0xc(%ebp)
        }

        kernel_memcpy((void*)to_paddr,(void*)from,curr_size);
   10cc1:	8b 55 10             	mov    0x10(%ebp),%edx
   10cc4:	8b 45 f0             	mov    -0x10(%ebp),%eax
   10cc7:	83 ec 04             	sub    $0x4,%esp
   10cca:	ff 75 f4             	pushl  -0xc(%ebp)
   10ccd:	52                   	push   %edx
   10cce:	50                   	push   %eax
   10ccf:	e8 37 47 00 00       	call   1540b <kernel_memcpy>
   10cd4:	83 c4 10             	add    $0x10,%esp
        size -= curr_size;
   10cd7:	8b 45 f4             	mov    -0xc(%ebp),%eax
   10cda:	29 45 14             	sub    %eax,0x14(%ebp)
        to += curr_size;
   10cdd:	8b 45 f4             	mov    -0xc(%ebp),%eax
   10ce0:	01 45 08             	add    %eax,0x8(%ebp)
        from += curr_size;
   10ce3:	8b 45 f4             	mov    -0xc(%ebp),%eax
   10ce6:	01 45 10             	add    %eax,0x10(%ebp)
    while(size > 0){
   10ce9:	83 7d 14 00          	cmpl   $0x0,0x14(%ebp)
   10ced:	75 8d                	jne    10c7c <memory_copy_uvm_data+0x8>
    }
    return 0;
   10cef:	b8 00 00 00 00       	mov    $0x0,%eax
}
   10cf4:	c9                   	leave  
   10cf5:	c3                   	ret    

00010cf6 <sys_sbrk>:

char* sys_sbrk(int incr){
   10cf6:	55                   	push   %ebp
   10cf7:	89 e5                	mov    %esp,%ebp
   10cf9:	83 ec 38             	sub    $0x38,%esp
    task_t* task=task_current();
   10cfc:	e8 db 08 00 00       	call   115dc <task_current>
   10d01:	89 45 f0             	mov    %eax,-0x10(%ebp)
    uint8_t*pre_heap_end=(uint8_t*) task->heap_end;
   10d04:	8b 45 f0             	mov    -0x10(%ebp),%eax
   10d07:	8b 40 10             	mov    0x10(%eax),%eax
   10d0a:	89 45 ec             	mov    %eax,-0x14(%ebp)

    ASSERT(incr>=0);
   10d0d:	83 7d 08 00          	cmpl   $0x0,0x8(%ebp)
   10d11:	79 1c                	jns    10d2f <sys_sbrk+0x39>
   10d13:	68 25 5c 01 00       	push   $0x15c25
   10d18:	68 8c 5c 01 00       	push   $0x15c8c
   10d1d:	68 21 01 00 00       	push   $0x121
   10d22:	68 6c 5b 01 00       	push   $0x15b6c
   10d27:	e8 81 4a 00 00       	call   157ad <panic>
   10d2c:	83 c4 10             	add    $0x10,%esp

    int pre_incr=incr;
   10d2f:	8b 45 08             	mov    0x8(%ebp),%eax
   10d32:	89 45 e8             	mov    %eax,-0x18(%ebp)

    if(incr==0){
   10d35:	83 7d 08 00          	cmpl   $0x0,0x8(%ebp)
   10d39:	75 1b                	jne    10d56 <sys_sbrk+0x60>
        log_printf("sbrk(0): end=0x%x",pre_heap_end);
   10d3b:	83 ec 08             	sub    $0x8,%esp
   10d3e:	ff 75 ec             	pushl  -0x14(%ebp)
   10d41:	68 2d 5c 01 00       	push   $0x15c2d
   10d46:	e8 32 4d 00 00       	call   15a7d <log_printf>
   10d4b:	83 c4 10             	add    $0x10,%esp
        return pre_heap_end;
   10d4e:	8b 45 ec             	mov    -0x14(%ebp),%eax
   10d51:	e9 aa 00 00 00       	jmp    10e00 <sys_sbrk+0x10a>
    }

    uint32_t start=task->heap_end;
   10d56:	8b 45 f0             	mov    -0x10(%ebp),%eax
   10d59:	8b 40 10             	mov    0x10(%eax),%eax
   10d5c:	89 45 f4             	mov    %eax,-0xc(%ebp)
    uint32_t end=start+incr;
   10d5f:	8b 55 08             	mov    0x8(%ebp),%edx
   10d62:	8b 45 f4             	mov    -0xc(%ebp),%eax
   10d65:	01 d0                	add    %edx,%eax
   10d67:	89 45 e4             	mov    %eax,-0x1c(%ebp)

    int start_offset=start % MEM_PAGE_SIZE;
   10d6a:	8b 45 f4             	mov    -0xc(%ebp),%eax
   10d6d:	25 ff 0f 00 00       	and    $0xfff,%eax
   10d72:	89 45 e0             	mov    %eax,-0x20(%ebp)
    if(start_offset){
   10d75:	83 7d e0 00          	cmpl   $0x0,-0x20(%ebp)
   10d79:	74 37                	je     10db2 <sys_sbrk+0xbc>
        if(start_offset+incr <= MEM_PAGE_SIZE){
   10d7b:	8b 55 e0             	mov    -0x20(%ebp),%edx
   10d7e:	8b 45 08             	mov    0x8(%ebp),%eax
   10d81:	01 d0                	add    %edx,%eax
   10d83:	3d 00 10 00 00       	cmp    $0x1000,%eax
   10d88:	7f 0e                	jg     10d98 <sys_sbrk+0xa2>
            task->heap_end=end;
   10d8a:	8b 45 f0             	mov    -0x10(%ebp),%eax
   10d8d:	8b 55 e4             	mov    -0x1c(%ebp),%edx
   10d90:	89 50 10             	mov    %edx,0x10(%eax)
            return pre_heap_end;
   10d93:	8b 45 ec             	mov    -0x14(%ebp),%eax
   10d96:	eb 68                	jmp    10e00 <sys_sbrk+0x10a>
        }
        else{
            uint32_t curr_size=MEM_PAGE_SIZE - start_offset;
   10d98:	b8 00 10 00 00       	mov    $0x1000,%eax
   10d9d:	2b 45 e0             	sub    -0x20(%ebp),%eax
   10da0:	89 45 dc             	mov    %eax,-0x24(%ebp)
            start+=curr_size;
   10da3:	8b 45 dc             	mov    -0x24(%ebp),%eax
   10da6:	01 45 f4             	add    %eax,-0xc(%ebp)
            incr-=curr_size;
   10da9:	8b 45 08             	mov    0x8(%ebp),%eax
   10dac:	2b 45 dc             	sub    -0x24(%ebp),%eax
   10daf:	89 45 08             	mov    %eax,0x8(%ebp)
        }
    }

    if(incr){
   10db2:	83 7d 08 00          	cmpl   $0x0,0x8(%ebp)
   10db6:	74 3c                	je     10df4 <sys_sbrk+0xfe>
        uint32_t curr_size=end-start;
   10db8:	8b 45 e4             	mov    -0x1c(%ebp),%eax
   10dbb:	2b 45 f4             	sub    -0xc(%ebp),%eax
   10dbe:	89 45 d8             	mov    %eax,-0x28(%ebp)
        int err=memory_alloc_page_for(start,curr_size,PTE_P | PTE_U | PTE_W);
   10dc1:	83 ec 04             	sub    $0x4,%esp
   10dc4:	6a 07                	push   $0x7
   10dc6:	ff 75 d8             	pushl  -0x28(%ebp)
   10dc9:	ff 75 f4             	pushl  -0xc(%ebp)
   10dcc:	e8 30 fb ff ff       	call   10901 <memory_alloc_page_for>
   10dd1:	83 c4 10             	add    $0x10,%esp
   10dd4:	89 45 d4             	mov    %eax,-0x2c(%ebp)
        if(err<0){
   10dd7:	83 7d d4 00          	cmpl   $0x0,-0x2c(%ebp)
   10ddb:	79 17                	jns    10df4 <sys_sbrk+0xfe>
            log_printf("sbrk: alloc mem failed.");
   10ddd:	83 ec 0c             	sub    $0xc,%esp
   10de0:	68 3f 5c 01 00       	push   $0x15c3f
   10de5:	e8 93 4c 00 00       	call   15a7d <log_printf>
   10dea:	83 c4 10             	add    $0x10,%esp
            return (char*)-1;
   10ded:	b8 ff ff ff ff       	mov    $0xffffffff,%eax
   10df2:	eb 0c                	jmp    10e00 <sys_sbrk+0x10a>
        }
    }

    task->heap_end=end;
   10df4:	8b 45 f0             	mov    -0x10(%ebp),%eax
   10df7:	8b 55 e4             	mov    -0x1c(%ebp),%edx
   10dfa:	89 50 10             	mov    %edx,0x10(%eax)
    return (char*)pre_heap_end;
   10dfd:	8b 45 ec             	mov    -0x14(%ebp),%eax
   10e00:	c9                   	leave  
   10e01:	c3                   	ret    

00010e02 <sys_print_msg>:

/// @brief 系统调用的函数指针，统一以这种方式定义
typedef int (*syscall_handler_t)(uint32_t arg0,uint32_t arg1,uint32_t arg2,uint32_t arg3);


void sys_print_msg(char* fmt,int arg){
   10e02:	55                   	push   %ebp
   10e03:	89 e5                	mov    %esp,%ebp
   10e05:	83 ec 08             	sub    $0x8,%esp
    log_printf(fmt,arg);
   10e08:	83 ec 08             	sub    $0x8,%esp
   10e0b:	ff 75 0c             	pushl  0xc(%ebp)
   10e0e:	ff 75 08             	pushl  0x8(%ebp)
   10e11:	e8 67 4c 00 00       	call   15a7d <log_printf>
   10e16:	83 c4 10             	add    $0x10,%esp
}
   10e19:	90                   	nop
   10e1a:	c9                   	leave  
   10e1b:	c3                   	ret    

00010e1c <do_handler_syscall>:
    
    [SYS_PRINT_MSG]=(syscall_handler_t)sys_print_msg,
};


void do_handler_syscall(syscall_frame_t*frame){
   10e1c:	55                   	push   %ebp
   10e1d:	89 e5                	mov    %esp,%ebp
   10e1f:	53                   	push   %ebx
   10e20:	83 ec 14             	sub    $0x14,%esp
    if(frame->func_id < sizeof(sys_table)/sizeof(sys_table[0])){
   10e23:	8b 45 08             	mov    0x8(%ebp),%eax
   10e26:	8b 40 3c             	mov    0x3c(%eax),%eax
   10e29:	83 f8 64             	cmp    $0x64,%eax
   10e2c:	77 48                	ja     10e76 <do_handler_syscall+0x5a>
        syscall_handler_t handler=sys_table[frame->func_id];
   10e2e:	8b 45 08             	mov    0x8(%ebp),%eax
   10e31:	8b 40 3c             	mov    0x3c(%eax),%eax
   10e34:	8b 04 85 a0 5c 01 00 	mov    0x15ca0(,%eax,4),%eax
   10e3b:	89 45 f4             	mov    %eax,-0xc(%ebp)
        if(handler){
   10e3e:	83 7d f4 00          	cmpl   $0x0,-0xc(%ebp)
   10e42:	74 32                	je     10e76 <do_handler_syscall+0x5a>
            int ret=handler(frame->arg0,frame->arg1,frame->arg2,frame->arg3);
   10e44:	8b 45 08             	mov    0x8(%ebp),%eax
   10e47:	8b 58 4c             	mov    0x4c(%eax),%ebx
   10e4a:	8b 45 08             	mov    0x8(%ebp),%eax
   10e4d:	8b 48 48             	mov    0x48(%eax),%ecx
   10e50:	8b 45 08             	mov    0x8(%ebp),%eax
   10e53:	8b 50 44             	mov    0x44(%eax),%edx
   10e56:	8b 45 08             	mov    0x8(%ebp),%eax
   10e59:	8b 40 40             	mov    0x40(%eax),%eax
   10e5c:	53                   	push   %ebx
   10e5d:	51                   	push   %ecx
   10e5e:	52                   	push   %edx
   10e5f:	50                   	push   %eax
   10e60:	8b 45 f4             	mov    -0xc(%ebp),%eax
   10e63:	ff d0                	call   *%eax
   10e65:	83 c4 10             	add    $0x10,%esp
   10e68:	89 45 f0             	mov    %eax,-0x10(%ebp)
            frame->eax=ret;
   10e6b:	8b 55 f0             	mov    -0x10(%ebp),%edx
   10e6e:	8b 45 08             	mov    0x8(%ebp),%eax
   10e71:	89 50 30             	mov    %edx,0x30(%eax)
            return;
   10e74:	eb 30                	jmp    10ea6 <do_handler_syscall+0x8a>
        }
    }

    task_t* task=task_current();
   10e76:	e8 61 07 00 00       	call   115dc <task_current>
   10e7b:	89 45 ec             	mov    %eax,-0x14(%ebp)
    log_printf("task: %s, Unknown syscall: %d",task->name,frame->func_id);
   10e7e:	8b 45 08             	mov    0x8(%ebp),%eax
   10e81:	8b 40 3c             	mov    0x3c(%eax),%eax
   10e84:	8b 55 ec             	mov    -0x14(%ebp),%edx
   10e87:	83 c2 20             	add    $0x20,%edx
   10e8a:	83 ec 04             	sub    $0x4,%esp
   10e8d:	50                   	push   %eax
   10e8e:	52                   	push   %edx
   10e8f:	68 34 5e 01 00       	push   $0x15e34
   10e94:	e8 e4 4b 00 00       	call   15a7d <log_printf>
   10e99:	83 c4 10             	add    $0x10,%esp
    frame->eax=-1;
   10e9c:	8b 45 08             	mov    0x8(%ebp),%eax
   10e9f:	c7 40 30 ff ff ff ff 	movl   $0xffffffff,0x30(%eax)
   10ea6:	8b 5d fc             	mov    -0x4(%ebp),%ebx
   10ea9:	c9                   	leave  
   10eaa:	c3                   	ret    

00010eab <read_cr0>:
static inline uint32_t read_cr0(void){
   10eab:	55                   	push   %ebp
   10eac:	89 e5                	mov    %esp,%ebp
   10eae:	83 ec 10             	sub    $0x10,%esp
    __asm__ __volatile__(
   10eb1:	0f 20 c0             	mov    %cr0,%eax
   10eb4:	89 45 fc             	mov    %eax,-0x4(%ebp)
    return cr0;
   10eb7:	8b 45 fc             	mov    -0x4(%ebp),%eax
}
   10eba:	c9                   	leave  
   10ebb:	c3                   	ret    

00010ebc <write_cr0>:
static inline void write_cr0(uint32_t v){
   10ebc:	55                   	push   %ebp
   10ebd:	89 e5                	mov    %esp,%ebp
    __asm__ __volatile__(
   10ebf:	8b 45 08             	mov    0x8(%ebp),%eax
   10ec2:	0f 22 c0             	mov    %eax,%cr0
}
   10ec5:	90                   	nop
   10ec6:	5d                   	pop    %ebp
   10ec7:	c3                   	ret    

00010ec8 <hlt>:
static inline void hlt(void){
   10ec8:	55                   	push   %ebp
   10ec9:	89 e5                	mov    %esp,%ebp
    __asm__ __volatile("hlt");
   10ecb:	f4                   	hlt    
}
   10ecc:	90                   	nop
   10ecd:	5d                   	pop    %ebp
   10ece:	c3                   	ret    

00010ecf <write_tr>:
static inline void write_tr(uint16_t tss_sel){
   10ecf:	55                   	push   %ebp
   10ed0:	89 e5                	mov    %esp,%ebp
   10ed2:	83 ec 04             	sub    $0x4,%esp
   10ed5:	8b 45 08             	mov    0x8(%ebp),%eax
   10ed8:	66 89 45 fc          	mov    %ax,-0x4(%ebp)
    __asm__ __volatile__(
   10edc:	0f b7 45 fc          	movzwl -0x4(%ebp),%eax
   10ee0:	0f 00 d8             	ltr    %ax
}
   10ee3:	90                   	nop
   10ee4:	c9                   	leave  
   10ee5:	c3                   	ret    

00010ee6 <write_cr3>:
static inline void write_cr3(uint32_t v){
   10ee6:	55                   	push   %ebp
   10ee7:	89 e5                	mov    %esp,%ebp
    __asm__ __volatile__(
   10ee9:	8b 45 08             	mov    0x8(%ebp),%eax
   10eec:	0f 22 d8             	mov    %eax,%cr3
}
   10eef:	90                   	nop
   10ef0:	5d                   	pop    %ebp
   10ef1:	c3                   	ret    

00010ef2 <write_cr4>:
static inline void write_cr4(uint32_t v){
   10ef2:	55                   	push   %ebp
   10ef3:	89 e5                	mov    %esp,%ebp
    __asm__ __volatile__(
   10ef5:	8b 45 08             	mov    0x8(%ebp),%eax
   10ef8:	0f 22 e0             	mov    %eax,%cr4
}
   10efb:	90                   	nop
   10efc:	5d                   	pop    %ebp
   10efd:	c3                   	ret    

00010efe <read_cr4>:
static inline uint32_t read_cr4(void){
   10efe:	55                   	push   %ebp
   10eff:	89 e5                	mov    %esp,%ebp
   10f01:	83 ec 10             	sub    $0x10,%esp
    __asm__ __volatile__(
   10f04:	0f 20 e0             	mov    %cr4,%eax
   10f07:	89 45 fc             	mov    %eax,-0x4(%ebp)
    return cr4;
   10f0a:	8b 45 fc             	mov    -0x4(%ebp),%eax
}
   10f0d:	c9                   	leave  
   10f0e:	c3                   	ret    

00010f0f <list_node_init>:
typedef struct _list_node_t{
    struct _list_node_t*pre;
    struct _list_node_t*next;
}list_node_t;

static inline void list_node_init(list_node_t* node){
   10f0f:	55                   	push   %ebp
   10f10:	89 e5                	mov    %esp,%ebp
    node->pre=node->next=(list_node_t*)0;
   10f12:	8b 45 08             	mov    0x8(%ebp),%eax
   10f15:	c7 40 04 00 00 00 00 	movl   $0x0,0x4(%eax)
   10f1c:	8b 45 08             	mov    0x8(%ebp),%eax
   10f1f:	8b 50 04             	mov    0x4(%eax),%edx
   10f22:	8b 45 08             	mov    0x8(%ebp),%eax
   10f25:	89 10                	mov    %edx,(%eax)
}
   10f27:	90                   	nop
   10f28:	5d                   	pop    %ebp
   10f29:	c3                   	ret    

00010f2a <list_node_next>:

static inline list_node_t* list_node_pre(list_node_t* node){
    return node->pre;
}

static inline list_node_t* list_node_next(list_node_t* node){
   10f2a:	55                   	push   %ebp
   10f2b:	89 e5                	mov    %esp,%ebp
    return node->next;
   10f2d:	8b 45 08             	mov    0x8(%ebp),%eax
   10f30:	8b 40 04             	mov    0x4(%eax),%eax
}
   10f33:	5d                   	pop    %ebp
   10f34:	c3                   	ret    

00010f35 <list_count>:
void list_init(list_t* list);
static inline int list_is_empty(list_t* list){
    return list->count==0;
}

static inline int list_count(list_t* list){
   10f35:	55                   	push   %ebp
   10f36:	89 e5                	mov    %esp,%ebp
    return list->count;
   10f38:	8b 45 08             	mov    0x8(%ebp),%eax
   10f3b:	8b 40 08             	mov    0x8(%eax),%eax
}
   10f3e:	5d                   	pop    %ebp
   10f3f:	c3                   	ret    

00010f40 <list_first>:

static inline list_node_t* list_first(list_t* list){
   10f40:	55                   	push   %ebp
   10f41:	89 e5                	mov    %esp,%ebp
    return list->first;
   10f43:	8b 45 08             	mov    0x8(%ebp),%eax
   10f46:	8b 00                	mov    (%eax),%eax
}
   10f48:	5d                   	pop    %ebp
   10f49:	c3                   	ret    

00010f4a <mmu_set_page_dir>:
static inline void mmu_set_page_dir(uint32_t paddr){
   10f4a:	55                   	push   %ebp
   10f4b:	89 e5                	mov    %esp,%ebp
   10f4d:	83 ec 10             	sub    $0x10,%esp
    uint32_t cr4=read_cr4();
   10f50:	e8 a9 ff ff ff       	call   10efe <read_cr4>
   10f55:	89 45 fc             	mov    %eax,-0x4(%ebp)
	write_cr4(cr4|CR4_PSE);
   10f58:	8b 45 fc             	mov    -0x4(%ebp),%eax
   10f5b:	83 c8 10             	or     $0x10,%eax
   10f5e:	50                   	push   %eax
   10f5f:	e8 8e ff ff ff       	call   10ef2 <write_cr4>
   10f64:	83 c4 04             	add    $0x4,%esp
	write_cr3(paddr);
   10f67:	ff 75 08             	pushl  0x8(%ebp)
   10f6a:	e8 77 ff ff ff       	call   10ee6 <write_cr3>
   10f6f:	83 c4 04             	add    $0x4,%esp
	write_cr0(read_cr0()|CR0_PG);
   10f72:	e8 34 ff ff ff       	call   10eab <read_cr0>
   10f77:	0d 00 00 00 80       	or     $0x80000000,%eax
   10f7c:	50                   	push   %eax
   10f7d:	e8 3a ff ff ff       	call   10ebc <write_cr0>
   10f82:	83 c4 04             	add    $0x4,%esp
}
   10f85:	90                   	nop
   10f86:	c9                   	leave  
   10f87:	c3                   	ret    

00010f88 <tss_init>:
 * @param flag 任务的标志位，设置任务的特权级
 * @param entry 任务的入口地址
 * @param esp 任务的栈顶地址
 * @return 0 成功，-1 失败
 */
static int tss_init(task_t* task,int flag,uint32_t entry,uint32_t esp){
   10f88:	55                   	push   %ebp
   10f89:	89 e5                	mov    %esp,%ebp
   10f8b:	83 ec 28             	sub    $0x28,%esp
    int tss_sel=gdt_alloc_desc();
   10f8e:	e8 e1 14 00 00       	call   12474 <gdt_alloc_desc>
   10f93:	89 45 ec             	mov    %eax,-0x14(%ebp)
    if(tss_sel<0){
   10f96:	83 7d ec 00          	cmpl   $0x0,-0x14(%ebp)
   10f9a:	79 1a                	jns    10fb6 <tss_init+0x2e>
        log_printf("alloc tss failed.\n");
   10f9c:	83 ec 0c             	sub    $0xc,%esp
   10f9f:	68 54 5e 01 00       	push   $0x15e54
   10fa4:	e8 d4 4a 00 00       	call   15a7d <log_printf>
   10fa9:	83 c4 10             	add    $0x10,%esp
        return -1;
   10fac:	b8 ff ff ff ff       	mov    $0xffffffff,%eax
   10fb1:	e9 6b 01 00 00       	jmp    11121 <tss_init+0x199>
    }

    // 这里将tss_sel设置为特权级0的TSS段描述符为了防止任意修改tss
    segment_desc_set(tss_sel,(uint32_t)&task->tss,sizeof(tss_t),
   10fb6:	8b 45 08             	mov    0x8(%ebp),%eax
   10fb9:	05 58 02 00 00       	add    $0x258,%eax
   10fbe:	68 89 00 00 00       	push   $0x89
   10fc3:	6a 68                	push   $0x68
   10fc5:	50                   	push   %eax
   10fc6:	ff 75 ec             	pushl  -0x14(%ebp)
   10fc9:	e8 30 13 00 00       	call   122fe <segment_desc_set>
   10fce:	83 c4 10             	add    $0x10,%esp
        SEG_P_PRESENT | SEG_DPL0 | SEG_TYPE_TSS
    );
    kernel_memset(&task->tss,0,sizeof(tss_t));
   10fd1:	8b 45 08             	mov    0x8(%ebp),%eax
   10fd4:	05 58 02 00 00       	add    $0x258,%eax
   10fd9:	83 ec 04             	sub    $0x4,%esp
   10fdc:	6a 68                	push   $0x68
   10fde:	6a 00                	push   $0x0
   10fe0:	50                   	push   %eax
   10fe1:	e8 74 44 00 00       	call   1545a <kernel_memset>
   10fe6:	83 c4 10             	add    $0x10,%esp

    uint32_t kernel_stack=memory_alloc_page();
   10fe9:	e8 38 f9 ff ff       	call   10926 <memory_alloc_page>
   10fee:	89 45 e8             	mov    %eax,-0x18(%ebp)
    if(kernel_stack == 0){
   10ff1:	83 7d e8 00          	cmpl   $0x0,-0x18(%ebp)
   10ff5:	0f 84 fb 00 00 00    	je     110f6 <tss_init+0x16e>
        goto tss_init_failed;
    }
    
    int code_sel,data_sel;
    if(flag & TASK_FLAGS_SYSTEM){
   10ffb:	8b 45 0c             	mov    0xc(%ebp),%eax
   10ffe:	83 e0 01             	and    $0x1,%eax
   11001:	85 c0                	test   %eax,%eax
   11003:	74 10                	je     11015 <tss_init+0x8d>
        code_sel=KERNEL_SELECTOR_CS;
   11005:	c7 45 f4 08 00 00 00 	movl   $0x8,-0xc(%ebp)
        data_sel=KERNEL_SELECTOR_DS;
   1100c:	c7 45 f0 10 00 00 00 	movl   $0x10,-0x10(%ebp)
   11013:	eb 16                	jmp    1102b <tss_init+0xa3>
    }
    else{
        code_sel=task_manager.app_code_sel | SEG_CPL3;
   11015:	a1 b8 a5 01 00       	mov    0x1a5b8,%eax
   1101a:	83 c8 03             	or     $0x3,%eax
   1101d:	89 45 f4             	mov    %eax,-0xc(%ebp)
        data_sel=task_manager.app_data_sel | SEG_CPL3;
   11020:	a1 bc a5 01 00       	mov    0x1a5bc,%eax
   11025:	83 c8 03             	or     $0x3,%eax
   11028:	89 45 f0             	mov    %eax,-0x10(%ebp)
    }

    task->tss.eip=entry;
   1102b:	8b 45 08             	mov    0x8(%ebp),%eax
   1102e:	8b 55 10             	mov    0x10(%ebp),%edx
   11031:	89 90 78 02 00 00    	mov    %edx,0x278(%eax)
    task->tss.esp=esp;
   11037:	8b 45 08             	mov    0x8(%ebp),%eax
   1103a:	8b 55 14             	mov    0x14(%ebp),%edx
   1103d:	89 90 90 02 00 00    	mov    %edx,0x290(%eax)
    task->tss.esp0=kernel_stack+MEM_PAGE_SIZE;
   11043:	8b 45 e8             	mov    -0x18(%ebp),%eax
   11046:	8d 90 00 10 00 00    	lea    0x1000(%eax),%edx
   1104c:	8b 45 08             	mov    0x8(%ebp),%eax
   1104f:	89 90 5c 02 00 00    	mov    %edx,0x25c(%eax)
    task->tss.ss=data_sel;
   11055:	8b 55 f0             	mov    -0x10(%ebp),%edx
   11058:	8b 45 08             	mov    0x8(%ebp),%eax
   1105b:	89 90 a8 02 00 00    	mov    %edx,0x2a8(%eax)
    task->tss.ss0=KERNEL_SELECTOR_DS;
   11061:	8b 45 08             	mov    0x8(%ebp),%eax
   11064:	c7 80 60 02 00 00 10 	movl   $0x10,0x260(%eax)
   1106b:	00 00 00 
    task->tss.es=task->tss.ds=task->tss.fs=task->tss.gs=data_sel;
   1106e:	8b 55 f0             	mov    -0x10(%ebp),%edx
   11071:	8b 45 08             	mov    0x8(%ebp),%eax
   11074:	89 90 b4 02 00 00    	mov    %edx,0x2b4(%eax)
   1107a:	8b 45 08             	mov    0x8(%ebp),%eax
   1107d:	8b 90 b4 02 00 00    	mov    0x2b4(%eax),%edx
   11083:	8b 45 08             	mov    0x8(%ebp),%eax
   11086:	89 90 b0 02 00 00    	mov    %edx,0x2b0(%eax)
   1108c:	8b 45 08             	mov    0x8(%ebp),%eax
   1108f:	8b 90 b0 02 00 00    	mov    0x2b0(%eax),%edx
   11095:	8b 45 08             	mov    0x8(%ebp),%eax
   11098:	89 90 ac 02 00 00    	mov    %edx,0x2ac(%eax)
   1109e:	8b 45 08             	mov    0x8(%ebp),%eax
   110a1:	8b 90 ac 02 00 00    	mov    0x2ac(%eax),%edx
   110a7:	8b 45 08             	mov    0x8(%ebp),%eax
   110aa:	89 90 a0 02 00 00    	mov    %edx,0x2a0(%eax)
    task->tss.cs=code_sel;
   110b0:	8b 55 f4             	mov    -0xc(%ebp),%edx
   110b3:	8b 45 08             	mov    0x8(%ebp),%eax
   110b6:	89 90 a4 02 00 00    	mov    %edx,0x2a4(%eax)
    task->tss.eflags=EFLAGS_DEFAULT | EFLAGS_IF;
   110bc:	8b 45 08             	mov    0x8(%ebp),%eax
   110bf:	c7 80 7c 02 00 00 02 	movl   $0x202,0x27c(%eax)
   110c6:	02 00 00 

    uint32_t page_dir=memory_create_uvm();
   110c9:	e8 fa f6 ff ff       	call   107c8 <memory_create_uvm>
   110ce:	89 45 e4             	mov    %eax,-0x1c(%ebp)
    if(page_dir == 0){
   110d1:	83 7d e4 00          	cmpl   $0x0,-0x1c(%ebp)
   110d5:	74 22                	je     110f9 <tss_init+0x171>
        goto tss_init_failed;
    }
    task->tss.cr3=page_dir;
   110d7:	8b 45 08             	mov    0x8(%ebp),%eax
   110da:	8b 55 e4             	mov    -0x1c(%ebp),%edx
   110dd:	89 90 74 02 00 00    	mov    %edx,0x274(%eax)
    task->tss_sel=tss_sel;
   110e3:	8b 45 08             	mov    0x8(%ebp),%eax
   110e6:	8b 55 ec             	mov    -0x14(%ebp),%edx
   110e9:	89 90 c0 02 00 00    	mov    %edx,0x2c0(%eax)
    return 0;
   110ef:	b8 00 00 00 00       	mov    $0x0,%eax
   110f4:	eb 2b                	jmp    11121 <tss_init+0x199>
        goto tss_init_failed;
   110f6:	90                   	nop
   110f7:	eb 01                	jmp    110fa <tss_init+0x172>
        goto tss_init_failed;
   110f9:	90                   	nop
tss_init_failed:
    gdt_free_sel(tss_sel);
   110fa:	83 ec 0c             	sub    $0xc,%esp
   110fd:	ff 75 ec             	pushl  -0x14(%ebp)
   11100:	e8 f8 13 00 00       	call   124fd <gdt_free_sel>
   11105:	83 c4 10             	add    $0x10,%esp
    if(kernel_stack){
   11108:	83 7d e8 00          	cmpl   $0x0,-0x18(%ebp)
   1110c:	74 0e                	je     1111c <tss_init+0x194>
        memory_free_page(kernel_stack);
   1110e:	83 ec 0c             	sub    $0xc,%esp
   11111:	ff 75 e8             	pushl  -0x18(%ebp)
   11114:	e8 40 f8 ff ff       	call   10959 <memory_free_page>
   11119:	83 c4 10             	add    $0x10,%esp
    }
    return -1;
   1111c:	b8 ff ff ff ff       	mov    $0xffffffff,%eax

}
   11121:	c9                   	leave  
   11122:	c3                   	ret    

00011123 <task_init>:

int task_init(task_t* task,const char*name,int flag,uint32_t entry,uint32_t esp){
   11123:	55                   	push   %ebp
   11124:	89 e5                	mov    %esp,%ebp
   11126:	83 ec 18             	sub    $0x18,%esp
    ASSERT(task!=(task_t*)0);
   11129:	83 7d 08 00          	cmpl   $0x0,0x8(%ebp)
   1112d:	75 19                	jne    11148 <task_init+0x25>
   1112f:	68 67 5e 01 00       	push   $0x15e67
   11134:	68 78 5f 01 00       	push   $0x15f78
   11139:	6a 52                	push   $0x52
   1113b:	68 78 5e 01 00       	push   $0x15e78
   11140:	e8 68 46 00 00       	call   157ad <panic>
   11145:	83 c4 10             	add    $0x10,%esp
    int err=tss_init(task,flag,entry,esp);
   11148:	ff 75 18             	pushl  0x18(%ebp)
   1114b:	ff 75 14             	pushl  0x14(%ebp)
   1114e:	ff 75 10             	pushl  0x10(%ebp)
   11151:	ff 75 08             	pushl  0x8(%ebp)
   11154:	e8 2f fe ff ff       	call   10f88 <tss_init>
   11159:	83 c4 10             	add    $0x10,%esp
   1115c:	89 45 f4             	mov    %eax,-0xc(%ebp)
    if(err<0){
   1115f:	83 7d f4 00          	cmpl   $0x0,-0xc(%ebp)
   11163:	79 18                	jns    1117d <task_init+0x5a>
        log_printf("init task failed.");
   11165:	83 ec 0c             	sub    $0xc,%esp
   11168:	68 ab 5e 01 00       	push   $0x15eab
   1116d:	e8 0b 49 00 00       	call   15a7d <log_printf>
   11172:	83 c4 10             	add    $0x10,%esp
        return err;
   11175:	8b 45 f4             	mov    -0xc(%ebp),%eax
   11178:	e9 fd 00 00 00       	jmp    1127a <task_init+0x157>
    }
    kernel_strncpy(task->name,name,TASK_NAME_SIZE);
   1117d:	8b 45 08             	mov    0x8(%ebp),%eax
   11180:	83 c0 20             	add    $0x20,%eax
   11183:	83 ec 04             	sub    $0x4,%esp
   11186:	6a 20                	push   $0x20
   11188:	ff 75 0c             	pushl  0xc(%ebp)
   1118b:	50                   	push   %eax
   1118c:	e8 55 41 00 00       	call   152e6 <kernel_strncpy>
   11191:	83 c4 10             	add    $0x10,%esp

    task->state=TASK_CREATED;
   11194:	8b 45 08             	mov    0x8(%ebp),%eax
   11197:	c7 00 00 00 00 00    	movl   $0x0,(%eax)
    task->time_ticks=TASK_TIME_SLICE_DEFAULT;
   1119d:	8b 45 08             	mov    0x8(%ebp),%eax
   111a0:	c7 40 1c 0a 00 00 00 	movl   $0xa,0x1c(%eax)
    task->slice_ticks=task->time_ticks;
   111a7:	8b 45 08             	mov    0x8(%ebp),%eax
   111aa:	8b 50 1c             	mov    0x1c(%eax),%edx
   111ad:	8b 45 08             	mov    0x8(%ebp),%eax
   111b0:	89 50 18             	mov    %edx,0x18(%eax)
    task->sleep_ticks=0;
   111b3:	8b 45 08             	mov    0x8(%ebp),%eax
   111b6:	c7 40 14 00 00 00 00 	movl   $0x0,0x14(%eax)
    task->status=0;
   111bd:	8b 45 08             	mov    0x8(%ebp),%eax
   111c0:	c7 80 c4 02 00 00 00 	movl   $0x0,0x2c4(%eax)
   111c7:	00 00 00 
    
    list_node_init(&task->all_node);
   111ca:	8b 45 08             	mov    0x8(%ebp),%eax
   111cd:	05 48 02 00 00       	add    $0x248,%eax
   111d2:	83 ec 0c             	sub    $0xc,%esp
   111d5:	50                   	push   %eax
   111d6:	e8 34 fd ff ff       	call   10f0f <list_node_init>
   111db:	83 c4 10             	add    $0x10,%esp
    list_node_init(&task->run_node);
   111de:	8b 45 08             	mov    0x8(%ebp),%eax
   111e1:	05 40 02 00 00       	add    $0x240,%eax
   111e6:	83 ec 0c             	sub    $0xc,%esp
   111e9:	50                   	push   %eax
   111ea:	e8 20 fd ff ff       	call   10f0f <list_node_init>
   111ef:	83 c4 10             	add    $0x10,%esp
    list_node_init(&task->wait_node);
   111f2:	8b 45 08             	mov    0x8(%ebp),%eax
   111f5:	05 50 02 00 00       	add    $0x250,%eax
   111fa:	83 ec 0c             	sub    $0xc,%esp
   111fd:	50                   	push   %eax
   111fe:	e8 0c fd ff ff       	call   10f0f <list_node_init>
   11203:	83 c4 10             	add    $0x10,%esp
    
    irq_state_t state=irq_enter_protection();
   11206:	e8 53 1c 00 00       	call   12e5e <irq_enter_protection>
   1120b:	89 45 f0             	mov    %eax,-0x10(%ebp)

    task->pid=(uint32_t)task;
   1120e:	8b 55 08             	mov    0x8(%ebp),%edx
   11211:	8b 45 08             	mov    0x8(%ebp),%eax
   11214:	89 50 04             	mov    %edx,0x4(%eax)
    task->parent=(task_t*)0;
   11217:	8b 45 08             	mov    0x8(%ebp),%eax
   1121a:	c7 40 08 00 00 00 00 	movl   $0x0,0x8(%eax)
    task->heap_start=0;
   11221:	8b 45 08             	mov    0x8(%ebp),%eax
   11224:	c7 40 0c 00 00 00 00 	movl   $0x0,0xc(%eax)
    task->heap_end=0;
   1122b:	8b 45 08             	mov    0x8(%ebp),%eax
   1122e:	c7 40 10 00 00 00 00 	movl   $0x0,0x10(%eax)

    // 对task->file_table进行初始化
    kernel_memset(&task->file_table,0,sizeof(task->file_table));
   11235:	8b 45 08             	mov    0x8(%ebp),%eax
   11238:	83 c0 40             	add    $0x40,%eax
   1123b:	83 ec 04             	sub    $0x4,%esp
   1123e:	68 00 02 00 00       	push   $0x200
   11243:	6a 00                	push   $0x0
   11245:	50                   	push   %eax
   11246:	e8 0f 42 00 00       	call   1545a <kernel_memset>
   1124b:	83 c4 10             	add    $0x10,%esp

    list_insert_last(&task_manager.task_list,&task->all_node);
   1124e:	8b 45 08             	mov    0x8(%ebp),%eax
   11251:	05 48 02 00 00       	add    $0x248,%eax
   11256:	83 ec 08             	sub    $0x8,%esp
   11259:	50                   	push   %eax
   1125a:	68 10 a0 01 00       	push   $0x1a010
   1125f:	e8 89 46 00 00       	call   158ed <list_insert_last>
   11264:	83 c4 10             	add    $0x10,%esp

    irq_leave_protection(state);
   11267:	83 ec 0c             	sub    $0xc,%esp
   1126a:	ff 75 f0             	pushl  -0x10(%ebp)
   1126d:	e8 04 1c 00 00       	call   12e76 <irq_leave_protection>
   11272:	83 c4 10             	add    $0x10,%esp

    return 0;
   11275:	b8 00 00 00 00       	mov    $0x0,%eax
}
   1127a:	c9                   	leave  
   1127b:	c3                   	ret    

0001127c <task_start>:

void task_start(task_t* task){
   1127c:	55                   	push   %ebp
   1127d:	89 e5                	mov    %esp,%ebp
   1127f:	83 ec 18             	sub    $0x18,%esp
    irq_state_t state=irq_enter_protection();
   11282:	e8 d7 1b 00 00       	call   12e5e <irq_enter_protection>
   11287:	89 45 f4             	mov    %eax,-0xc(%ebp)
    task_set_ready(task);
   1128a:	83 ec 0c             	sub    $0xc,%esp
   1128d:	ff 75 08             	pushl  0x8(%ebp)
   11290:	e8 9f 02 00 00       	call   11534 <task_set_ready>
   11295:	83 c4 10             	add    $0x10,%esp
    irq_leave_protection(state);
   11298:	83 ec 0c             	sub    $0xc,%esp
   1129b:	ff 75 f4             	pushl  -0xc(%ebp)
   1129e:	e8 d3 1b 00 00       	call   12e76 <irq_leave_protection>
   112a3:	83 c4 10             	add    $0x10,%esp
}
   112a6:	90                   	nop
   112a7:	c9                   	leave  
   112a8:	c3                   	ret    

000112a9 <task_uninit>:

/**
 * @brief 释放任务的资源
 * @param task 需要释放的任务结构体
 */
void task_uninit(task_t* task){
   112a9:	55                   	push   %ebp
   112aa:	89 e5                	mov    %esp,%ebp
   112ac:	83 ec 08             	sub    $0x8,%esp
    if(task->tss_sel){
   112af:	8b 45 08             	mov    0x8(%ebp),%eax
   112b2:	8b 80 c0 02 00 00    	mov    0x2c0(%eax),%eax
   112b8:	85 c0                	test   %eax,%eax
   112ba:	74 15                	je     112d1 <task_uninit+0x28>
        gdt_free_sel(task->tss_sel);
   112bc:	8b 45 08             	mov    0x8(%ebp),%eax
   112bf:	8b 80 c0 02 00 00    	mov    0x2c0(%eax),%eax
   112c5:	83 ec 0c             	sub    $0xc,%esp
   112c8:	50                   	push   %eax
   112c9:	e8 2f 12 00 00       	call   124fd <gdt_free_sel>
   112ce:	83 c4 10             	add    $0x10,%esp
    }

    if(task->tss.esp0){
   112d1:	8b 45 08             	mov    0x8(%ebp),%eax
   112d4:	8b 80 5c 02 00 00    	mov    0x25c(%eax),%eax
   112da:	85 c0                	test   %eax,%eax
   112dc:	74 1a                	je     112f8 <task_uninit+0x4f>
        memory_free_page(task->tss.esp-MEM_PAGE_SIZE);
   112de:	8b 45 08             	mov    0x8(%ebp),%eax
   112e1:	8b 80 90 02 00 00    	mov    0x290(%eax),%eax
   112e7:	2d 00 10 00 00       	sub    $0x1000,%eax
   112ec:	83 ec 0c             	sub    $0xc,%esp
   112ef:	50                   	push   %eax
   112f0:	e8 64 f6 ff ff       	call   10959 <memory_free_page>
   112f5:	83 c4 10             	add    $0x10,%esp
    }

    if(task->tss.cr3){
   112f8:	8b 45 08             	mov    0x8(%ebp),%eax
   112fb:	8b 80 74 02 00 00    	mov    0x274(%eax),%eax
   11301:	85 c0                	test   %eax,%eax
   11303:	74 15                	je     1131a <task_uninit+0x71>
        memory_destroy_uvm(task->tss.cr3);
   11305:	8b 45 08             	mov    0x8(%ebp),%eax
   11308:	8b 80 74 02 00 00    	mov    0x274(%eax),%eax
   1130e:	83 ec 0c             	sub    $0xc,%esp
   11311:	50                   	push   %eax
   11312:	e8 db f6 ff ff       	call   109f2 <memory_destroy_uvm>
   11317:	83 c4 10             	add    $0x10,%esp
    }

    kernel_memset(task,0,sizeof(task));
   1131a:	83 ec 04             	sub    $0x4,%esp
   1131d:	6a 04                	push   $0x4
   1131f:	6a 00                	push   $0x0
   11321:	ff 75 08             	pushl  0x8(%ebp)
   11324:	e8 31 41 00 00       	call   1545a <kernel_memset>
   11329:	83 c4 10             	add    $0x10,%esp
}
   1132c:	90                   	nop
   1132d:	c9                   	leave  
   1132e:	c3                   	ret    

0001132f <task_switch_from_to>:

void task_switch_from_to(task_t*from,task_t*to){
   1132f:	55                   	push   %ebp
   11330:	89 e5                	mov    %esp,%ebp
   11332:	83 ec 08             	sub    $0x8,%esp
    switch_to_tss(to->tss_sel);
   11335:	8b 45 0c             	mov    0xc(%ebp),%eax
   11338:	8b 80 c0 02 00 00    	mov    0x2c0(%eax),%eax
   1133e:	83 ec 0c             	sub    $0xc,%esp
   11341:	50                   	push   %eax
   11342:	e8 a2 11 00 00       	call   124e9 <switch_to_tss>
   11347:	83 c4 10             	add    $0x10,%esp
}
   1134a:	90                   	nop
   1134b:	c9                   	leave  
   1134c:	c3                   	ret    

0001134d <idle_task_entry>:

static void idle_task_entry(void){
   1134d:	55                   	push   %ebp
   1134e:	89 e5                	mov    %esp,%ebp
    for(;;){
        hlt();
   11350:	e8 73 fb ff ff       	call   10ec8 <hlt>
   11355:	eb f9                	jmp    11350 <idle_task_entry+0x3>

00011357 <task_manager_init>:
}

/**
 * @brief 初始化任务管理器
 */
void task_manager_init(void){
   11357:	55                   	push   %ebp
   11358:	89 e5                	mov    %esp,%ebp
   1135a:	83 ec 18             	sub    $0x18,%esp

    kernel_memset(task_table,0,sizeof(task_table));
   1135d:	83 ec 04             	sub    $0x4,%esp
   11360:	68 00 64 01 00       	push   $0x16400
   11365:	6a 00                	push   $0x0
   11367:	68 c0 b5 01 00       	push   $0x1b5c0
   1136c:	e8 e9 40 00 00       	call   1545a <kernel_memset>
   11371:	83 c4 10             	add    $0x10,%esp
    mutex_init(&table_mutex);
   11374:	83 ec 0c             	sub    $0xc,%esp
   11377:	68 c0 19 03 00       	push   $0x319c0
   1137c:	e8 e1 39 00 00       	call   14d62 <mutex_init>
   11381:	83 c4 10             	add    $0x10,%esp

    int sel=gdt_alloc_desc();
   11384:	e8 eb 10 00 00       	call   12474 <gdt_alloc_desc>
   11389:	89 45 f4             	mov    %eax,-0xc(%ebp)

    // 这里虽然设置的代码段和数据段范围还是0x0-0xFFFFFFFF，但使用该段的段选择子访问的方式为特权级3
    segment_desc_set(sel,0x0,0xFFFFFFFF,
   1138c:	68 f2 40 00 00       	push   $0x40f2
   11391:	6a ff                	push   $0xffffffff
   11393:	6a 00                	push   $0x0
   11395:	ff 75 f4             	pushl  -0xc(%ebp)
   11398:	e8 61 0f 00 00       	call   122fe <segment_desc_set>
   1139d:	83 c4 10             	add    $0x10,%esp
        SEG_P_PRESENT | SEG_DPL3 | SEG_S_NORMAL | SEG_TYPE_DATA | SEG_TYPE_RW | SEG_D
    );
    task_manager.app_data_sel=sel;
   113a0:	8b 45 f4             	mov    -0xc(%ebp),%eax
   113a3:	a3 bc a5 01 00       	mov    %eax,0x1a5bc

    sel=gdt_alloc_desc();
   113a8:	e8 c7 10 00 00       	call   12474 <gdt_alloc_desc>
   113ad:	89 45 f4             	mov    %eax,-0xc(%ebp)
    segment_desc_set(sel,0x0,0xFFFFFFFF,
   113b0:	68 fa 40 00 00       	push   $0x40fa
   113b5:	6a ff                	push   $0xffffffff
   113b7:	6a 00                	push   $0x0
   113b9:	ff 75 f4             	pushl  -0xc(%ebp)
   113bc:	e8 3d 0f 00 00       	call   122fe <segment_desc_set>
   113c1:	83 c4 10             	add    $0x10,%esp
           SEG_P_PRESENT | SEG_DPL3 | SEG_S_NORMAL |SEG_TYPE_CODE | SEG_TYPE_RW | SEG_D
    );
    task_manager.app_code_sel=sel;
   113c4:	8b 45 f4             	mov    -0xc(%ebp),%eax
   113c7:	a3 b8 a5 01 00       	mov    %eax,0x1a5b8

    list_init(&task_manager.ready_list);
   113cc:	83 ec 0c             	sub    $0xc,%esp
   113cf:	68 04 a0 01 00       	push   $0x1a004
   113d4:	e8 90 44 00 00       	call   15869 <list_init>
   113d9:	83 c4 10             	add    $0x10,%esp
    list_init(&task_manager.task_list);
   113dc:	83 ec 0c             	sub    $0xc,%esp
   113df:	68 10 a0 01 00       	push   $0x1a010
   113e4:	e8 80 44 00 00       	call   15869 <list_init>
   113e9:	83 c4 10             	add    $0x10,%esp
    list_init(&task_manager.sleep_list);
   113ec:	83 ec 0c             	sub    $0xc,%esp
   113ef:	68 1c a0 01 00       	push   $0x1a01c
   113f4:	e8 70 44 00 00       	call   15869 <list_init>
   113f9:	83 c4 10             	add    $0x10,%esp
    task_manager.curr_task=(task_t*)0;
   113fc:	c7 05 00 a0 01 00 00 	movl   $0x0,0x1a000
   11403:	00 00 00 
    task_init(&task_manager.idle_task,"idle_task",TASK_FLAGS_SYSTEM,(uint32_t)idle_task_entry,
    (uint32_t)(idle_task_stack+IDLE_TASK_SIZE));
   11406:	b8 c0 b5 01 00       	mov    $0x1b5c0,%eax
    task_init(&task_manager.idle_task,"idle_task",TASK_FLAGS_SYSTEM,(uint32_t)idle_task_entry,
   1140b:	89 c2                	mov    %eax,%edx
   1140d:	b8 4d 13 01 00       	mov    $0x1134d,%eax
   11412:	83 ec 0c             	sub    $0xc,%esp
   11415:	52                   	push   %edx
   11416:	50                   	push   %eax
   11417:	6a 01                	push   $0x1
   11419:	68 bd 5e 01 00       	push   $0x15ebd
   1141e:	68 f0 a2 01 00       	push   $0x1a2f0
   11423:	e8 fb fc ff ff       	call   11123 <task_init>
   11428:	83 c4 20             	add    $0x20,%esp

    task_start(&task_manager.idle_task);
   1142b:	83 ec 0c             	sub    $0xc,%esp
   1142e:	68 f0 a2 01 00       	push   $0x1a2f0
   11433:	e8 44 fe ff ff       	call   1127c <task_start>
   11438:	83 c4 10             	add    $0x10,%esp
}
   1143b:	90                   	nop
   1143c:	c9                   	leave  
   1143d:	c3                   	ret    

0001143e <task_first_init>:

/**
 * @brief 初始化第一个任务
 * @note 该函数的运行的入口地址为first_task_entry，位于first_task_entry.S中
 */
void task_first_init(void){
   1143e:	55                   	push   %ebp
   1143f:	89 e5                	mov    %esp,%ebp
   11441:	83 ec 18             	sub    $0x18,%esp
    void first_task_entry(void);
    extern uint8_t s_first_task[],e_first_task[];

    uint32_t copy_size=(uint32_t)(e_first_task-s_first_task);
   11444:	ba 6d c9 06 00       	mov    $0x6c96d,%edx
   11449:	b8 e0 c5 06 00       	mov    $0x6c5e0,%eax
   1144e:	29 c2                	sub    %eax,%edx
   11450:	89 d0                	mov    %edx,%eax
   11452:	89 45 f4             	mov    %eax,-0xc(%ebp)
    uint32_t alloc_size=10*MEM_PAGE_SIZE;
   11455:	c7 45 f0 00 a0 00 00 	movl   $0xa000,-0x10(%ebp)
    ASSERT(copy_size < alloc_size);
   1145c:	8b 45 f4             	mov    -0xc(%ebp),%eax
   1145f:	3b 45 f0             	cmp    -0x10(%ebp),%eax
   11462:	72 1c                	jb     11480 <task_first_init+0x42>
   11464:	68 c7 5e 01 00       	push   $0x15ec7
   11469:	68 84 5f 01 00       	push   $0x15f84
   1146e:	68 c3 00 00 00       	push   $0xc3
   11473:	68 78 5e 01 00       	push   $0x15e78
   11478:	e8 30 43 00 00       	call   157ad <panic>
   1147d:	83 c4 10             	add    $0x10,%esp

    uint32_t first_start=(uint32_t)first_task_entry;
   11480:	c7 45 ec 00 00 00 80 	movl   $0x80000000,-0x14(%ebp)

    task_init(&task_manager.first_task,"first task",0,first_start,first_start+alloc_size);
   11487:	8b 55 ec             	mov    -0x14(%ebp),%edx
   1148a:	8b 45 f0             	mov    -0x10(%ebp),%eax
   1148d:	01 d0                	add    %edx,%eax
   1148f:	83 ec 0c             	sub    $0xc,%esp
   11492:	50                   	push   %eax
   11493:	ff 75 ec             	pushl  -0x14(%ebp)
   11496:	6a 00                	push   $0x0
   11498:	68 de 5e 01 00       	push   $0x15ede
   1149d:	68 28 a0 01 00       	push   $0x1a028
   114a2:	e8 7c fc ff ff       	call   11123 <task_init>
   114a7:	83 c4 20             	add    $0x20,%esp

    task_manager.first_task.heap_start=(uint32_t)e_first_task;
   114aa:	b8 6d c9 06 00       	mov    $0x6c96d,%eax
   114af:	a3 34 a0 01 00       	mov    %eax,0x1a034
    task_manager.first_task.heap_end=(uint32_t)e_first_task;
   114b4:	b8 6d c9 06 00       	mov    $0x6c96d,%eax
   114b9:	a3 38 a0 01 00       	mov    %eax,0x1a038

    write_tr(task_manager.first_task.tss_sel);
   114be:	a1 e8 a2 01 00       	mov    0x1a2e8,%eax
   114c3:	0f b7 c0             	movzwl %ax,%eax
   114c6:	83 ec 0c             	sub    $0xc,%esp
   114c9:	50                   	push   %eax
   114ca:	e8 00 fa ff ff       	call   10ecf <write_tr>
   114cf:	83 c4 10             	add    $0x10,%esp
    task_manager.curr_task=&task_manager.first_task;
   114d2:	c7 05 00 a0 01 00 28 	movl   $0x1a028,0x1a000
   114d9:	a0 01 00 

    mmu_set_page_dir(task_manager.first_task.tss.cr3);
   114dc:	a1 9c a2 01 00       	mov    0x1a29c,%eax
   114e1:	83 ec 0c             	sub    $0xc,%esp
   114e4:	50                   	push   %eax
   114e5:	e8 60 fa ff ff       	call   10f4a <mmu_set_page_dir>
   114ea:	83 c4 10             	add    $0x10,%esp

    memory_alloc_page_for(first_start,alloc_size,PTE_P | PTE_W | PTE_U);
   114ed:	83 ec 04             	sub    $0x4,%esp
   114f0:	6a 07                	push   $0x7
   114f2:	ff 75 f0             	pushl  -0x10(%ebp)
   114f5:	ff 75 ec             	pushl  -0x14(%ebp)
   114f8:	e8 04 f4 ff ff       	call   10901 <memory_alloc_page_for>
   114fd:	83 c4 10             	add    $0x10,%esp
    kernel_memcpy((void*)first_start,s_first_task,copy_size);
   11500:	8b 45 ec             	mov    -0x14(%ebp),%eax
   11503:	83 ec 04             	sub    $0x4,%esp
   11506:	ff 75 f4             	pushl  -0xc(%ebp)
   11509:	68 e0 c5 06 00       	push   $0x6c5e0
   1150e:	50                   	push   %eax
   1150f:	e8 f7 3e 00 00       	call   1540b <kernel_memcpy>
   11514:	83 c4 10             	add    $0x10,%esp

    task_start(&task_manager.first_task);
   11517:	83 ec 0c             	sub    $0xc,%esp
   1151a:	68 28 a0 01 00       	push   $0x1a028
   1151f:	e8 58 fd ff ff       	call   1127c <task_start>
   11524:	83 c4 10             	add    $0x10,%esp
}
   11527:	90                   	nop
   11528:	c9                   	leave  
   11529:	c3                   	ret    

0001152a <task_first_task>:

task_t* task_first_task(void){
   1152a:	55                   	push   %ebp
   1152b:	89 e5                	mov    %esp,%ebp
    return &task_manager.first_task;
   1152d:	b8 28 a0 01 00       	mov    $0x1a028,%eax
}
   11532:	5d                   	pop    %ebp
   11533:	c3                   	ret    

00011534 <task_set_ready>:
 * @brief 设置任务为就绪状态
 * @param task 需要设置的任务
 * @return 0 成功，-1 失败
 * @note 该函数会将任务插入到就绪队列中，将任务的状态设置为就绪
 */
void task_set_ready(task_t* task){
   11534:	55                   	push   %ebp
   11535:	89 e5                	mov    %esp,%ebp
   11537:	83 ec 08             	sub    $0x8,%esp
    if(task==&task_manager.idle_task){
   1153a:	81 7d 08 f0 a2 01 00 	cmpl   $0x1a2f0,0x8(%ebp)
   11541:	74 24                	je     11567 <task_set_ready+0x33>
        return;
    }
    list_insert_last(&task_manager.ready_list,&task->run_node);
   11543:	8b 45 08             	mov    0x8(%ebp),%eax
   11546:	05 40 02 00 00       	add    $0x240,%eax
   1154b:	83 ec 08             	sub    $0x8,%esp
   1154e:	50                   	push   %eax
   1154f:	68 04 a0 01 00       	push   $0x1a004
   11554:	e8 94 43 00 00       	call   158ed <list_insert_last>
   11559:	83 c4 10             	add    $0x10,%esp
    task->state=TASK_READY;
   1155c:	8b 45 08             	mov    0x8(%ebp),%eax
   1155f:	c7 00 03 00 00 00    	movl   $0x3,(%eax)
   11565:	eb 01                	jmp    11568 <task_set_ready+0x34>
        return;
   11567:	90                   	nop
}
   11568:	c9                   	leave  
   11569:	c3                   	ret    

0001156a <task_set_block>:

void task_set_block(task_t* task){
   1156a:	55                   	push   %ebp
   1156b:	89 e5                	mov    %esp,%ebp
   1156d:	83 ec 08             	sub    $0x8,%esp
    if(task==&task_manager.idle_task){
   11570:	81 7d 08 f0 a2 01 00 	cmpl   $0x1a2f0,0x8(%ebp)
   11577:	74 1b                	je     11594 <task_set_block+0x2a>
        return;
    }
    list_remove(&task_manager.ready_list,&task->run_node);
   11579:	8b 45 08             	mov    0x8(%ebp),%eax
   1157c:	05 40 02 00 00       	add    $0x240,%eax
   11581:	83 ec 08             	sub    $0x8,%esp
   11584:	50                   	push   %eax
   11585:	68 04 a0 01 00       	push   $0x1a004
   1158a:	e8 3a 44 00 00       	call   159c9 <list_remove>
   1158f:	83 c4 10             	add    $0x10,%esp
   11592:	eb 01                	jmp    11595 <task_set_block+0x2b>
        return;
   11594:	90                   	nop
}
   11595:	c9                   	leave  
   11596:	c3                   	ret    

00011597 <task_next_run>:

task_t* task_next_run(void){
   11597:	55                   	push   %ebp
   11598:	89 e5                	mov    %esp,%ebp
   1159a:	83 ec 10             	sub    $0x10,%esp
    if(list_count(&task_manager.ready_list)==0){
   1159d:	68 04 a0 01 00       	push   $0x1a004
   115a2:	e8 8e f9 ff ff       	call   10f35 <list_count>
   115a7:	83 c4 04             	add    $0x4,%esp
   115aa:	85 c0                	test   %eax,%eax
   115ac:	75 07                	jne    115b5 <task_next_run+0x1e>
        return &task_manager.idle_task;
   115ae:	b8 f0 a2 01 00       	mov    $0x1a2f0,%eax
   115b3:	eb 25                	jmp    115da <task_next_run+0x43>
    }
    list_node_t* task_node=list_first(&task_manager.ready_list);
   115b5:	68 04 a0 01 00       	push   $0x1a004
   115ba:	e8 81 f9 ff ff       	call   10f40 <list_first>
   115bf:	83 c4 04             	add    $0x4,%esp
   115c2:	89 45 fc             	mov    %eax,-0x4(%ebp)
    return list_node_parent(task_node,task_t,run_node);
   115c5:	83 7d fc 00          	cmpl   $0x0,-0x4(%ebp)
   115c9:	74 0a                	je     115d5 <task_next_run+0x3e>
   115cb:	8b 45 fc             	mov    -0x4(%ebp),%eax
   115ce:	2d 40 02 00 00       	sub    $0x240,%eax
   115d3:	eb 05                	jmp    115da <task_next_run+0x43>
   115d5:	b8 00 00 00 00       	mov    $0x0,%eax
}
   115da:	c9                   	leave  
   115db:	c3                   	ret    

000115dc <task_current>:

task_t* task_current(void){
   115dc:	55                   	push   %ebp
   115dd:	89 e5                	mov    %esp,%ebp
    return task_manager.curr_task;
   115df:	a1 00 a0 01 00       	mov    0x1a000,%eax
}
   115e4:	5d                   	pop    %ebp
   115e5:	c3                   	ret    

000115e6 <sys_sched_yield>:

int sys_sched_yield(void){
   115e6:	55                   	push   %ebp
   115e7:	89 e5                	mov    %esp,%ebp
   115e9:	83 ec 18             	sub    $0x18,%esp
    irq_state_t state=irq_enter_protection();
   115ec:	e8 6d 18 00 00       	call   12e5e <irq_enter_protection>
   115f1:	89 45 f4             	mov    %eax,-0xc(%ebp)
    if(list_count(&task_manager.ready_list)>1){
   115f4:	83 ec 0c             	sub    $0xc,%esp
   115f7:	68 04 a0 01 00       	push   $0x1a004
   115fc:	e8 34 f9 ff ff       	call   10f35 <list_count>
   11601:	83 c4 10             	add    $0x10,%esp
   11604:	83 f8 01             	cmp    $0x1,%eax
   11607:	7e 29                	jle    11632 <sys_sched_yield+0x4c>
        task_t* curr_task=task_current();
   11609:	e8 ce ff ff ff       	call   115dc <task_current>
   1160e:	89 45 f0             	mov    %eax,-0x10(%ebp)

        task_set_block(curr_task);
   11611:	83 ec 0c             	sub    $0xc,%esp
   11614:	ff 75 f0             	pushl  -0x10(%ebp)
   11617:	e8 4e ff ff ff       	call   1156a <task_set_block>
   1161c:	83 c4 10             	add    $0x10,%esp
        task_set_ready(curr_task);
   1161f:	83 ec 0c             	sub    $0xc,%esp
   11622:	ff 75 f0             	pushl  -0x10(%ebp)
   11625:	e8 0a ff ff ff       	call   11534 <task_set_ready>
   1162a:	83 c4 10             	add    $0x10,%esp

        task_dispatch();
   1162d:	e8 15 00 00 00       	call   11647 <task_dispatch>
    }
    irq_leave_protection(state);
   11632:	83 ec 0c             	sub    $0xc,%esp
   11635:	ff 75 f4             	pushl  -0xc(%ebp)
   11638:	e8 39 18 00 00       	call   12e76 <irq_leave_protection>
   1163d:	83 c4 10             	add    $0x10,%esp
    return 0;
   11640:	b8 00 00 00 00       	mov    $0x0,%eax
}
   11645:	c9                   	leave  
   11646:	c3                   	ret    

00011647 <task_dispatch>:

void task_dispatch(void){
   11647:	55                   	push   %ebp
   11648:	89 e5                	mov    %esp,%ebp
   1164a:	83 ec 18             	sub    $0x18,%esp
    irq_state_t state=irq_enter_protection();
   1164d:	e8 0c 18 00 00       	call   12e5e <irq_enter_protection>
   11652:	89 45 f4             	mov    %eax,-0xc(%ebp)
    task_t* to=task_next_run();
   11655:	e8 3d ff ff ff       	call   11597 <task_next_run>
   1165a:	89 45 f0             	mov    %eax,-0x10(%ebp)
    if(to!=task_manager.curr_task){
   1165d:	a1 00 a0 01 00       	mov    0x1a000,%eax
   11662:	39 45 f0             	cmp    %eax,-0x10(%ebp)
   11665:	74 2a                	je     11691 <task_dispatch+0x4a>
        task_t* from=task_current();
   11667:	e8 70 ff ff ff       	call   115dc <task_current>
   1166c:	89 45 ec             	mov    %eax,-0x14(%ebp)
        task_manager.curr_task=to;
   1166f:	8b 45 f0             	mov    -0x10(%ebp),%eax
   11672:	a3 00 a0 01 00       	mov    %eax,0x1a000
        to->state=TASK_RUNNING;
   11677:	8b 45 f0             	mov    -0x10(%ebp),%eax
   1167a:	c7 00 01 00 00 00    	movl   $0x1,(%eax)
        task_switch_from_to(from,to);
   11680:	83 ec 08             	sub    $0x8,%esp
   11683:	ff 75 f0             	pushl  -0x10(%ebp)
   11686:	ff 75 ec             	pushl  -0x14(%ebp)
   11689:	e8 a1 fc ff ff       	call   1132f <task_switch_from_to>
   1168e:	83 c4 10             	add    $0x10,%esp
    }
    irq_leave_protection(state);
   11691:	83 ec 0c             	sub    $0xc,%esp
   11694:	ff 75 f4             	pushl  -0xc(%ebp)
   11697:	e8 da 17 00 00       	call   12e76 <irq_leave_protection>
   1169c:	83 c4 10             	add    $0x10,%esp
}
   1169f:	90                   	nop
   116a0:	c9                   	leave  
   116a1:	c3                   	ret    

000116a2 <task_time_tick>:

void task_time_tick(void){
   116a2:	55                   	push   %ebp
   116a3:	89 e5                	mov    %esp,%ebp
   116a5:	83 ec 28             	sub    $0x28,%esp
    irq_state_t state=irq_enter_protection();
   116a8:	e8 b1 17 00 00       	call   12e5e <irq_enter_protection>
   116ad:	89 45 f0             	mov    %eax,-0x10(%ebp)
    task_t* curr_task=task_current();
   116b0:	e8 27 ff ff ff       	call   115dc <task_current>
   116b5:	89 45 ec             	mov    %eax,-0x14(%ebp)
    if(--curr_task->slice_ticks==0){
   116b8:	8b 45 ec             	mov    -0x14(%ebp),%eax
   116bb:	8b 40 18             	mov    0x18(%eax),%eax
   116be:	8d 50 ff             	lea    -0x1(%eax),%edx
   116c1:	8b 45 ec             	mov    -0x14(%ebp),%eax
   116c4:	89 50 18             	mov    %edx,0x18(%eax)
   116c7:	8b 45 ec             	mov    -0x14(%ebp),%eax
   116ca:	8b 40 18             	mov    0x18(%eax),%eax
   116cd:	85 c0                	test   %eax,%eax
   116cf:	75 28                	jne    116f9 <task_time_tick+0x57>
        curr_task->slice_ticks=curr_task->time_ticks;
   116d1:	8b 45 ec             	mov    -0x14(%ebp),%eax
   116d4:	8b 50 1c             	mov    0x1c(%eax),%edx
   116d7:	8b 45 ec             	mov    -0x14(%ebp),%eax
   116da:	89 50 18             	mov    %edx,0x18(%eax)
        task_set_block(curr_task);
   116dd:	83 ec 0c             	sub    $0xc,%esp
   116e0:	ff 75 ec             	pushl  -0x14(%ebp)
   116e3:	e8 82 fe ff ff       	call   1156a <task_set_block>
   116e8:	83 c4 10             	add    $0x10,%esp
        task_set_ready(curr_task);
   116eb:	83 ec 0c             	sub    $0xc,%esp
   116ee:	ff 75 ec             	pushl  -0x14(%ebp)
   116f1:	e8 3e fe ff ff       	call   11534 <task_set_ready>
   116f6:	83 c4 10             	add    $0x10,%esp
    }
    list_node_t* curr=list_first(&task_manager.sleep_list);
   116f9:	83 ec 0c             	sub    $0xc,%esp
   116fc:	68 1c a0 01 00       	push   $0x1a01c
   11701:	e8 3a f8 ff ff       	call   10f40 <list_first>
   11706:	83 c4 10             	add    $0x10,%esp
   11709:	89 45 f4             	mov    %eax,-0xc(%ebp)
    while(curr){
   1170c:	eb 64                	jmp    11772 <task_time_tick+0xd0>
        list_node_t*next=list_node_next(curr);
   1170e:	83 ec 0c             	sub    $0xc,%esp
   11711:	ff 75 f4             	pushl  -0xc(%ebp)
   11714:	e8 11 f8 ff ff       	call   10f2a <list_node_next>
   11719:	83 c4 10             	add    $0x10,%esp
   1171c:	89 45 e8             	mov    %eax,-0x18(%ebp)
        task_t* task=list_node_parent(curr,task_t,run_node);
   1171f:	83 7d f4 00          	cmpl   $0x0,-0xc(%ebp)
   11723:	74 0a                	je     1172f <task_time_tick+0x8d>
   11725:	8b 45 f4             	mov    -0xc(%ebp),%eax
   11728:	2d 40 02 00 00       	sub    $0x240,%eax
   1172d:	eb 05                	jmp    11734 <task_time_tick+0x92>
   1172f:	b8 00 00 00 00       	mov    $0x0,%eax
   11734:	89 45 e4             	mov    %eax,-0x1c(%ebp)
        if(--task->sleep_ticks==0){
   11737:	8b 45 e4             	mov    -0x1c(%ebp),%eax
   1173a:	8b 40 14             	mov    0x14(%eax),%eax
   1173d:	8d 50 ff             	lea    -0x1(%eax),%edx
   11740:	8b 45 e4             	mov    -0x1c(%ebp),%eax
   11743:	89 50 14             	mov    %edx,0x14(%eax)
   11746:	8b 45 e4             	mov    -0x1c(%ebp),%eax
   11749:	8b 40 14             	mov    0x14(%eax),%eax
   1174c:	85 c0                	test   %eax,%eax
   1174e:	75 1c                	jne    1176c <task_time_tick+0xca>
            task_set_wakeup(task);
   11750:	83 ec 0c             	sub    $0xc,%esp
   11753:	ff 75 e4             	pushl  -0x1c(%ebp)
   11756:	e8 6f 00 00 00       	call   117ca <task_set_wakeup>
   1175b:	83 c4 10             	add    $0x10,%esp
            task_set_ready(task);
   1175e:	83 ec 0c             	sub    $0xc,%esp
   11761:	ff 75 e4             	pushl  -0x1c(%ebp)
   11764:	e8 cb fd ff ff       	call   11534 <task_set_ready>
   11769:	83 c4 10             	add    $0x10,%esp
        }
        curr=next;
   1176c:	8b 45 e8             	mov    -0x18(%ebp),%eax
   1176f:	89 45 f4             	mov    %eax,-0xc(%ebp)
    while(curr){
   11772:	83 7d f4 00          	cmpl   $0x0,-0xc(%ebp)
   11776:	75 96                	jne    1170e <task_time_tick+0x6c>
    }
    task_dispatch();
   11778:	e8 ca fe ff ff       	call   11647 <task_dispatch>
    irq_leave_protection(state);
   1177d:	83 ec 0c             	sub    $0xc,%esp
   11780:	ff 75 f0             	pushl  -0x10(%ebp)
   11783:	e8 ee 16 00 00       	call   12e76 <irq_leave_protection>
   11788:	83 c4 10             	add    $0x10,%esp
}
   1178b:	90                   	nop
   1178c:	c9                   	leave  
   1178d:	c3                   	ret    

0001178e <task_set_sleep>:

void task_set_sleep(task_t* task,uint32_t ticks){
   1178e:	55                   	push   %ebp
   1178f:	89 e5                	mov    %esp,%ebp
   11791:	83 ec 08             	sub    $0x8,%esp
    if(ticks==0){
   11794:	83 7d 0c 00          	cmpl   $0x0,0xc(%ebp)
   11798:	74 2d                	je     117c7 <task_set_sleep+0x39>
        return;
    }
    task->sleep_ticks=ticks;
   1179a:	8b 55 0c             	mov    0xc(%ebp),%edx
   1179d:	8b 45 08             	mov    0x8(%ebp),%eax
   117a0:	89 50 14             	mov    %edx,0x14(%eax)
    task->state=TASK_SLEEP;
   117a3:	8b 45 08             	mov    0x8(%ebp),%eax
   117a6:	c7 00 02 00 00 00    	movl   $0x2,(%eax)
    list_insert_last(&task_manager.sleep_list,&task->run_node);
   117ac:	8b 45 08             	mov    0x8(%ebp),%eax
   117af:	05 40 02 00 00       	add    $0x240,%eax
   117b4:	83 ec 08             	sub    $0x8,%esp
   117b7:	50                   	push   %eax
   117b8:	68 1c a0 01 00       	push   $0x1a01c
   117bd:	e8 2b 41 00 00       	call   158ed <list_insert_last>
   117c2:	83 c4 10             	add    $0x10,%esp
   117c5:	eb 01                	jmp    117c8 <task_set_sleep+0x3a>
        return;
   117c7:	90                   	nop
}
   117c8:	c9                   	leave  
   117c9:	c3                   	ret    

000117ca <task_set_wakeup>:

void task_set_wakeup(task_t* task){
   117ca:	55                   	push   %ebp
   117cb:	89 e5                	mov    %esp,%ebp
   117cd:	83 ec 08             	sub    $0x8,%esp
    list_remove(&task_manager.sleep_list,&task->run_node);
   117d0:	8b 45 08             	mov    0x8(%ebp),%eax
   117d3:	05 40 02 00 00       	add    $0x240,%eax
   117d8:	83 ec 08             	sub    $0x8,%esp
   117db:	50                   	push   %eax
   117dc:	68 1c a0 01 00       	push   $0x1a01c
   117e1:	e8 e3 41 00 00       	call   159c9 <list_remove>
   117e6:	83 c4 10             	add    $0x10,%esp
}
   117e9:	90                   	nop
   117ea:	c9                   	leave  
   117eb:	c3                   	ret    

000117ec <sys_msleep>:

void sys_msleep (uint32_t ms) {
   117ec:	55                   	push   %ebp
   117ed:	89 e5                	mov    %esp,%ebp
   117ef:	83 ec 18             	sub    $0x18,%esp
    if (ms < OS_TICK_MS) {
   117f2:	83 7d 08 09          	cmpl   $0x9,0x8(%ebp)
   117f6:	77 07                	ja     117ff <sys_msleep+0x13>
        ms = OS_TICK_MS;
   117f8:	c7 45 08 0a 00 00 00 	movl   $0xa,0x8(%ebp)
    }

    irq_state_t state = irq_enter_protection();
   117ff:	e8 5a 16 00 00       	call   12e5e <irq_enter_protection>
   11804:	89 45 f4             	mov    %eax,-0xc(%ebp)

    task_set_block(task_manager.curr_task);
   11807:	a1 00 a0 01 00       	mov    0x1a000,%eax
   1180c:	83 ec 0c             	sub    $0xc,%esp
   1180f:	50                   	push   %eax
   11810:	e8 55 fd ff ff       	call   1156a <task_set_block>
   11815:	83 c4 10             	add    $0x10,%esp
    task_set_sleep(task_manager.curr_task, (ms + (OS_TICK_MS - 1))/ OS_TICK_MS);
   11818:	8b 45 08             	mov    0x8(%ebp),%eax
   1181b:	83 c0 09             	add    $0x9,%eax
   1181e:	ba cd cc cc cc       	mov    $0xcccccccd,%edx
   11823:	f7 e2                	mul    %edx
   11825:	c1 ea 03             	shr    $0x3,%edx
   11828:	a1 00 a0 01 00       	mov    0x1a000,%eax
   1182d:	83 ec 08             	sub    $0x8,%esp
   11830:	52                   	push   %edx
   11831:	50                   	push   %eax
   11832:	e8 57 ff ff ff       	call   1178e <task_set_sleep>
   11837:	83 c4 10             	add    $0x10,%esp
    
    task_dispatch();
   1183a:	e8 08 fe ff ff       	call   11647 <task_dispatch>

    irq_leave_protection(state);
   1183f:	83 ec 0c             	sub    $0xc,%esp
   11842:	ff 75 f4             	pushl  -0xc(%ebp)
   11845:	e8 2c 16 00 00       	call   12e76 <irq_leave_protection>
   1184a:	83 c4 10             	add    $0x10,%esp
}
   1184d:	90                   	nop
   1184e:	c9                   	leave  
   1184f:	c3                   	ret    

00011850 <sys_getpid>:

int sys_getpid(void){
   11850:	55                   	push   %ebp
   11851:	89 e5                	mov    %esp,%ebp
   11853:	83 ec 10             	sub    $0x10,%esp
    task_t* task=task_current();
   11856:	e8 81 fd ff ff       	call   115dc <task_current>
   1185b:	89 45 fc             	mov    %eax,-0x4(%ebp)
    return task->pid;
   1185e:	8b 45 fc             	mov    -0x4(%ebp),%eax
   11861:	8b 40 04             	mov    0x4(%eax),%eax
}
   11864:	c9                   	leave  
   11865:	c3                   	ret    

00011866 <alloc_task>:

static task_t* alloc_task(void){
   11866:	55                   	push   %ebp
   11867:	89 e5                	mov    %esp,%ebp
   11869:	83 ec 18             	sub    $0x18,%esp
    task_t* task=(task_t*)0;
   1186c:	c7 45 f4 00 00 00 00 	movl   $0x0,-0xc(%ebp)
    mutex_lock(&table_mutex);
   11873:	83 ec 0c             	sub    $0xc,%esp
   11876:	68 c0 19 03 00       	push   $0x319c0
   1187b:	e8 10 35 00 00       	call   14d90 <mutex_lock>
   11880:	83 c4 10             	add    $0x10,%esp
    for(int i=0;i<TASK_NR;i++){
   11883:	c7 45 f0 00 00 00 00 	movl   $0x0,-0x10(%ebp)
   1188a:	eb 27                	jmp    118b3 <alloc_task+0x4d>
        task_t* curr=task_table+i;
   1188c:	8b 45 f0             	mov    -0x10(%ebp),%eax
   1188f:	69 c0 c8 02 00 00    	imul   $0x2c8,%eax,%eax
   11895:	05 c0 b5 01 00       	add    $0x1b5c0,%eax
   1189a:	89 45 ec             	mov    %eax,-0x14(%ebp)
        if(curr->pid==0){
   1189d:	8b 45 ec             	mov    -0x14(%ebp),%eax
   118a0:	8b 40 04             	mov    0x4(%eax),%eax
   118a3:	85 c0                	test   %eax,%eax
   118a5:	75 08                	jne    118af <alloc_task+0x49>
            task=curr;
   118a7:	8b 45 ec             	mov    -0x14(%ebp),%eax
   118aa:	89 45 f4             	mov    %eax,-0xc(%ebp)
            break;
   118ad:	eb 0a                	jmp    118b9 <alloc_task+0x53>
    for(int i=0;i<TASK_NR;i++){
   118af:	83 45 f0 01          	addl   $0x1,-0x10(%ebp)
   118b3:	83 7d f0 7f          	cmpl   $0x7f,-0x10(%ebp)
   118b7:	7e d3                	jle    1188c <alloc_task+0x26>
        }
    }   
    mutex_unlock(&table_mutex);
   118b9:	83 ec 0c             	sub    $0xc,%esp
   118bc:	68 c0 19 03 00       	push   $0x319c0
   118c1:	e8 59 35 00 00       	call   14e1f <mutex_unlock>
   118c6:	83 c4 10             	add    $0x10,%esp

    return task;
   118c9:	8b 45 f4             	mov    -0xc(%ebp),%eax
}
   118cc:	c9                   	leave  
   118cd:	c3                   	ret    

000118ce <free_task>:

static void free_task(task_t* task){
   118ce:	55                   	push   %ebp
   118cf:	89 e5                	mov    %esp,%ebp
   118d1:	83 ec 08             	sub    $0x8,%esp
    mutex_lock(&table_mutex);
   118d4:	83 ec 0c             	sub    $0xc,%esp
   118d7:	68 c0 19 03 00       	push   $0x319c0
   118dc:	e8 af 34 00 00       	call   14d90 <mutex_lock>
   118e1:	83 c4 10             	add    $0x10,%esp
    task->pid=0;
   118e4:	8b 45 08             	mov    0x8(%ebp),%eax
   118e7:	c7 40 04 00 00 00 00 	movl   $0x0,0x4(%eax)
    mutex_unlock(&table_mutex);
   118ee:	83 ec 0c             	sub    $0xc,%esp
   118f1:	68 c0 19 03 00       	push   $0x319c0
   118f6:	e8 24 35 00 00       	call   14e1f <mutex_unlock>
   118fb:	83 c4 10             	add    $0x10,%esp
}
   118fe:	90                   	nop
   118ff:	c9                   	leave  
   11900:	c3                   	ret    

00011901 <sys_fork>:

int sys_fork(void){
   11901:	55                   	push   %ebp
   11902:	89 e5                	mov    %esp,%ebp
   11904:	83 ec 28             	sub    $0x28,%esp
    task_t* parent_task=task_current();
   11907:	e8 d0 fc ff ff       	call   115dc <task_current>
   1190c:	89 45 f4             	mov    %eax,-0xc(%ebp)
    task_t* child_task=alloc_task();
   1190f:	e8 52 ff ff ff       	call   11866 <alloc_task>
   11914:	89 45 f0             	mov    %eax,-0x10(%ebp)

    if(child_task==(task_t*)0){
   11917:	83 7d f0 00          	cmpl   $0x0,-0x10(%ebp)
   1191b:	0f 84 24 01 00 00    	je     11a45 <sys_fork+0x144>
        goto fork_failed;
    }

    syscall_frame_t* frame=(syscall_frame_t*)(parent_task->tss.esp0-sizeof(syscall_frame_t));
   11921:	8b 45 f4             	mov    -0xc(%ebp),%eax
   11924:	8b 80 5c 02 00 00    	mov    0x25c(%eax),%eax
   1192a:	83 e8 58             	sub    $0x58,%eax
   1192d:	89 45 ec             	mov    %eax,-0x14(%ebp)
    int err=task_init(child_task,parent_task->name,0,frame->eip,frame->esp+sizeof(uint32_t)*SYSCALL_PARAM_COUNT);
   11930:	8b 45 ec             	mov    -0x14(%ebp),%eax
   11933:	8b 40 50             	mov    0x50(%eax),%eax
   11936:	8d 48 14             	lea    0x14(%eax),%ecx
   11939:	8b 45 ec             	mov    -0x14(%ebp),%eax
   1193c:	8b 40 34             	mov    0x34(%eax),%eax
   1193f:	8b 55 f4             	mov    -0xc(%ebp),%edx
   11942:	83 c2 20             	add    $0x20,%edx
   11945:	83 ec 0c             	sub    $0xc,%esp
   11948:	51                   	push   %ecx
   11949:	50                   	push   %eax
   1194a:	6a 00                	push   $0x0
   1194c:	52                   	push   %edx
   1194d:	ff 75 f0             	pushl  -0x10(%ebp)
   11950:	e8 ce f7 ff ff       	call   11123 <task_init>
   11955:	83 c4 20             	add    $0x20,%esp
   11958:	89 45 e8             	mov    %eax,-0x18(%ebp)
    if(err < 0){
   1195b:	83 7d e8 00          	cmpl   $0x0,-0x18(%ebp)
   1195f:	0f 88 e3 00 00 00    	js     11a48 <sys_fork+0x147>
        goto fork_failed;
    }

    tss_t* tss=&child_task->tss;
   11965:	8b 45 f0             	mov    -0x10(%ebp),%eax
   11968:	05 58 02 00 00       	add    $0x258,%eax
   1196d:	89 45 e4             	mov    %eax,-0x1c(%ebp)
    tss->eax= 0;
   11970:	8b 45 e4             	mov    -0x1c(%ebp),%eax
   11973:	c7 40 28 00 00 00 00 	movl   $0x0,0x28(%eax)
    tss->ebx=frame->ebx;
   1197a:	8b 45 ec             	mov    -0x14(%ebp),%eax
   1197d:	8b 50 24             	mov    0x24(%eax),%edx
   11980:	8b 45 e4             	mov    -0x1c(%ebp),%eax
   11983:	89 50 34             	mov    %edx,0x34(%eax)
    tss->ecx=frame->ecx;
   11986:	8b 45 ec             	mov    -0x14(%ebp),%eax
   11989:	8b 50 2c             	mov    0x2c(%eax),%edx
   1198c:	8b 45 e4             	mov    -0x1c(%ebp),%eax
   1198f:	89 50 2c             	mov    %edx,0x2c(%eax)
    tss->edx=frame->edx;
   11992:	8b 45 ec             	mov    -0x14(%ebp),%eax
   11995:	8b 50 28             	mov    0x28(%eax),%edx
   11998:	8b 45 e4             	mov    -0x1c(%ebp),%eax
   1199b:	89 50 30             	mov    %edx,0x30(%eax)
    tss->esi=frame->esi;
   1199e:	8b 45 ec             	mov    -0x14(%ebp),%eax
   119a1:	8b 50 18             	mov    0x18(%eax),%edx
   119a4:	8b 45 e4             	mov    -0x1c(%ebp),%eax
   119a7:	89 50 40             	mov    %edx,0x40(%eax)
    tss->edi=frame->edi;
   119aa:	8b 45 ec             	mov    -0x14(%ebp),%eax
   119ad:	8b 50 14             	mov    0x14(%eax),%edx
   119b0:	8b 45 e4             	mov    -0x1c(%ebp),%eax
   119b3:	89 50 44             	mov    %edx,0x44(%eax)
    tss->ebp=frame->ebp;
   119b6:	8b 45 ec             	mov    -0x14(%ebp),%eax
   119b9:	8b 50 1c             	mov    0x1c(%eax),%edx
   119bc:	8b 45 e4             	mov    -0x1c(%ebp),%eax
   119bf:	89 50 3c             	mov    %edx,0x3c(%eax)

    tss->cs=frame->cs;
   119c2:	8b 45 ec             	mov    -0x14(%ebp),%eax
   119c5:	8b 50 38             	mov    0x38(%eax),%edx
   119c8:	8b 45 e4             	mov    -0x1c(%ebp),%eax
   119cb:	89 50 4c             	mov    %edx,0x4c(%eax)
    tss->ds=frame->ds;
   119ce:	8b 45 ec             	mov    -0x14(%ebp),%eax
   119d1:	8b 50 10             	mov    0x10(%eax),%edx
   119d4:	8b 45 e4             	mov    -0x1c(%ebp),%eax
   119d7:	89 50 54             	mov    %edx,0x54(%eax)
    tss->es=frame->es;
   119da:	8b 45 ec             	mov    -0x14(%ebp),%eax
   119dd:	8b 50 0c             	mov    0xc(%eax),%edx
   119e0:	8b 45 e4             	mov    -0x1c(%ebp),%eax
   119e3:	89 50 48             	mov    %edx,0x48(%eax)
    tss->fs=frame->fs;
   119e6:	8b 45 ec             	mov    -0x14(%ebp),%eax
   119e9:	8b 50 08             	mov    0x8(%eax),%edx
   119ec:	8b 45 e4             	mov    -0x1c(%ebp),%eax
   119ef:	89 50 58             	mov    %edx,0x58(%eax)
    tss->gs=frame->gs;
   119f2:	8b 45 ec             	mov    -0x14(%ebp),%eax
   119f5:	8b 50 04             	mov    0x4(%eax),%edx
   119f8:	8b 45 e4             	mov    -0x1c(%ebp),%eax
   119fb:	89 50 5c             	mov    %edx,0x5c(%eax)
    tss->eflags=frame->eflags;
   119fe:	8b 45 ec             	mov    -0x14(%ebp),%eax
   11a01:	8b 10                	mov    (%eax),%edx
   11a03:	8b 45 e4             	mov    -0x1c(%ebp),%eax
   11a06:	89 50 24             	mov    %edx,0x24(%eax)

    child_task->parent=parent_task;
   11a09:	8b 45 f0             	mov    -0x10(%ebp),%eax
   11a0c:	8b 55 f4             	mov    -0xc(%ebp),%edx
   11a0f:	89 50 08             	mov    %edx,0x8(%eax)

    if((tss->cr3=memory_copy_uvm(parent_task->tss.cr3))<0){
   11a12:	8b 45 f4             	mov    -0xc(%ebp),%eax
   11a15:	8b 80 74 02 00 00    	mov    0x274(%eax),%eax
   11a1b:	83 ec 0c             	sub    $0xc,%esp
   11a1e:	50                   	push   %eax
   11a1f:	e8 b5 f0 ff ff       	call   10ad9 <memory_copy_uvm>
   11a24:	83 c4 10             	add    $0x10,%esp
   11a27:	89 c2                	mov    %eax,%edx
   11a29:	8b 45 e4             	mov    -0x1c(%ebp),%eax
   11a2c:	89 50 1c             	mov    %edx,0x1c(%eax)
        goto fork_failed;
    }

    task_start(child_task);
   11a2f:	83 ec 0c             	sub    $0xc,%esp
   11a32:	ff 75 f0             	pushl  -0x10(%ebp)
   11a35:	e8 42 f8 ff ff       	call   1127c <task_start>
   11a3a:	83 c4 10             	add    $0x10,%esp

    return child_task->pid;
   11a3d:	8b 45 f0             	mov    -0x10(%ebp),%eax
   11a40:	8b 40 04             	mov    0x4(%eax),%eax
   11a43:	eb 2b                	jmp    11a70 <sys_fork+0x16f>
        goto fork_failed;
   11a45:	90                   	nop
   11a46:	eb 01                	jmp    11a49 <sys_fork+0x148>
        goto fork_failed;
   11a48:	90                   	nop

fork_failed:
    if(child_task){
   11a49:	83 7d f0 00          	cmpl   $0x0,-0x10(%ebp)
   11a4d:	74 1c                	je     11a6b <sys_fork+0x16a>
        task_uninit(child_task);
   11a4f:	83 ec 0c             	sub    $0xc,%esp
   11a52:	ff 75 f0             	pushl  -0x10(%ebp)
   11a55:	e8 4f f8 ff ff       	call   112a9 <task_uninit>
   11a5a:	83 c4 10             	add    $0x10,%esp
        free_task(child_task);
   11a5d:	83 ec 0c             	sub    $0xc,%esp
   11a60:	ff 75 f0             	pushl  -0x10(%ebp)
   11a63:	e8 66 fe ff ff       	call   118ce <free_task>
   11a68:	83 c4 10             	add    $0x10,%esp
    }

    return -1;
   11a6b:	b8 ff ff ff ff       	mov    $0xffffffff,%eax
}
   11a70:	c9                   	leave  
   11a71:	c3                   	ret    

00011a72 <load_phdr>:

static int load_phdr(int file,Elf32_Phdr*phdr ,uint32_t page_dir){
   11a72:	55                   	push   %ebp
   11a73:	89 e5                	mov    %esp,%ebp
   11a75:	83 ec 28             	sub    $0x28,%esp
    int err=memory_alloc_for_page_dir(page_dir,phdr->p_vaddr,phdr->p_memsz,PTE_P|PTE_U|PTE_W);
   11a78:	8b 45 0c             	mov    0xc(%ebp),%eax
   11a7b:	8b 50 14             	mov    0x14(%eax),%edx
   11a7e:	8b 45 0c             	mov    0xc(%ebp),%eax
   11a81:	8b 40 08             	mov    0x8(%eax),%eax
   11a84:	6a 07                	push   $0x7
   11a86:	52                   	push   %edx
   11a87:	50                   	push   %eax
   11a88:	ff 75 10             	pushl  0x10(%ebp)
   11a8b:	e8 bd ed ff ff       	call   1084d <memory_alloc_for_page_dir>
   11a90:	83 c4 10             	add    $0x10,%esp
   11a93:	89 45 ec             	mov    %eax,-0x14(%ebp)
    if(err < 0){
   11a96:	83 7d ec 00          	cmpl   $0x0,-0x14(%ebp)
   11a9a:	79 1a                	jns    11ab6 <load_phdr+0x44>
        log_printf("no memory");
   11a9c:	83 ec 0c             	sub    $0xc,%esp
   11a9f:	68 e9 5e 01 00       	push   $0x15ee9
   11aa4:	e8 d4 3f 00 00       	call   15a7d <log_printf>
   11aa9:	83 c4 10             	add    $0x10,%esp
        return -1;
   11aac:	b8 ff ff ff ff       	mov    $0xffffffff,%eax
   11ab1:	e9 b8 00 00 00       	jmp    11b6e <load_phdr+0xfc>
    }

    if(sys_lseek(file,phdr->p_offset,0)<0){
   11ab6:	8b 45 0c             	mov    0xc(%ebp),%eax
   11ab9:	8b 40 04             	mov    0x4(%eax),%eax
   11abc:	83 ec 04             	sub    $0x4,%esp
   11abf:	6a 00                	push   $0x0
   11ac1:	50                   	push   %eax
   11ac2:	ff 75 08             	pushl  0x8(%ebp)
   11ac5:	e8 ef 30 00 00       	call   14bb9 <sys_lseek>
   11aca:	83 c4 10             	add    $0x10,%esp
   11acd:	85 c0                	test   %eax,%eax
   11acf:	79 1a                	jns    11aeb <load_phdr+0x79>
        log_printf("read file failed");
   11ad1:	83 ec 0c             	sub    $0xc,%esp
   11ad4:	68 f3 5e 01 00       	push   $0x15ef3
   11ad9:	e8 9f 3f 00 00       	call   15a7d <log_printf>
   11ade:	83 c4 10             	add    $0x10,%esp
        return -1;
   11ae1:	b8 ff ff ff ff       	mov    $0xffffffff,%eax
   11ae6:	e9 83 00 00 00       	jmp    11b6e <load_phdr+0xfc>
    }

    uint32_t vaddr=phdr->p_vaddr;
   11aeb:	8b 45 0c             	mov    0xc(%ebp),%eax
   11aee:	8b 40 08             	mov    0x8(%eax),%eax
   11af1:	89 45 f4             	mov    %eax,-0xc(%ebp)
    uint32_t size=phdr->p_filesz;
   11af4:	8b 45 0c             	mov    0xc(%ebp),%eax
   11af7:	8b 40 10             	mov    0x10(%eax),%eax
   11afa:	89 45 f0             	mov    %eax,-0x10(%ebp)

    while(size > 0){
   11afd:	eb 64                	jmp    11b63 <load_phdr+0xf1>
        int curr_size=(size > MEM_PAGE_SIZE) ? MEM_PAGE_SIZE : size;
   11aff:	b8 00 10 00 00       	mov    $0x1000,%eax
   11b04:	81 7d f0 00 10 00 00 	cmpl   $0x1000,-0x10(%ebp)
   11b0b:	0f 46 45 f0          	cmovbe -0x10(%ebp),%eax
   11b0f:	89 45 e8             	mov    %eax,-0x18(%ebp)
        uint32_t paddr=memory_get_paddr(page_dir,vaddr);
   11b12:	83 ec 08             	sub    $0x8,%esp
   11b15:	ff 75 f4             	pushl  -0xc(%ebp)
   11b18:	ff 75 10             	pushl  0x10(%ebp)
   11b1b:	e8 0e f1 ff ff       	call   10c2e <memory_get_paddr>
   11b20:	83 c4 10             	add    $0x10,%esp
   11b23:	89 45 e4             	mov    %eax,-0x1c(%ebp)

        if(sys_read(file,(char*)paddr,curr_size)<curr_size){
   11b26:	8b 45 e4             	mov    -0x1c(%ebp),%eax
   11b29:	83 ec 04             	sub    $0x4,%esp
   11b2c:	ff 75 e8             	pushl  -0x18(%ebp)
   11b2f:	50                   	push   %eax
   11b30:	ff 75 08             	pushl  0x8(%ebp)
   11b33:	e8 ad 2f 00 00       	call   14ae5 <sys_read>
   11b38:	83 c4 10             	add    $0x10,%esp
   11b3b:	39 45 e8             	cmp    %eax,-0x18(%ebp)
   11b3e:	7e 17                	jle    11b57 <load_phdr+0xe5>
            log_printf("read file failed.");
   11b40:	83 ec 0c             	sub    $0xc,%esp
   11b43:	68 04 5f 01 00       	push   $0x15f04
   11b48:	e8 30 3f 00 00       	call   15a7d <log_printf>
   11b4d:	83 c4 10             	add    $0x10,%esp
            return -1;
   11b50:	b8 ff ff ff ff       	mov    $0xffffffff,%eax
   11b55:	eb 17                	jmp    11b6e <load_phdr+0xfc>
        }

        size-=curr_size;
   11b57:	8b 45 e8             	mov    -0x18(%ebp),%eax
   11b5a:	29 45 f0             	sub    %eax,-0x10(%ebp)
        vaddr+=curr_size;
   11b5d:	8b 45 e8             	mov    -0x18(%ebp),%eax
   11b60:	01 45 f4             	add    %eax,-0xc(%ebp)
    while(size > 0){
   11b63:	83 7d f0 00          	cmpl   $0x0,-0x10(%ebp)
   11b67:	75 96                	jne    11aff <load_phdr+0x8d>
    }

    return 0;
   11b69:	b8 00 00 00 00       	mov    $0x0,%eax

}
   11b6e:	c9                   	leave  
   11b6f:	c3                   	ret    

00011b70 <load_elf_file>:

static uint32_t load_elf_file(task_t* task,const char* name,uint32_t page_dir){
   11b70:	55                   	push   %ebp
   11b71:	89 e5                	mov    %esp,%ebp
   11b73:	83 ec 78             	sub    $0x78,%esp
    Elf32_Ehdr elf_hdr;
    Elf32_Phdr elf_phdr;

    int file=sys_open(name,0);
   11b76:	83 ec 08             	sub    $0x8,%esp
   11b79:	6a 00                	push   $0x0
   11b7b:	ff 75 0c             	pushl  0xc(%ebp)
   11b7e:	e8 02 2e 00 00       	call   14985 <sys_open>
   11b83:	83 c4 10             	add    $0x10,%esp
   11b86:	89 45 ec             	mov    %eax,-0x14(%ebp)
    if(file<0){
   11b89:	83 7d ec 00          	cmpl   $0x0,-0x14(%ebp)
   11b8d:	79 18                	jns    11ba7 <load_elf_file+0x37>
        log_printf("open failed. %s",name);
   11b8f:	83 ec 08             	sub    $0x8,%esp
   11b92:	ff 75 0c             	pushl  0xc(%ebp)
   11b95:	68 16 5f 01 00       	push   $0x15f16
   11b9a:	e8 de 3e 00 00       	call   15a7d <log_printf>
   11b9f:	83 c4 10             	add    $0x10,%esp
        goto load_failed;
   11ba2:	e9 6c 01 00 00       	jmp    11d13 <load_elf_file+0x1a3>
    }

    int cnt=sys_read(file,(char*)&elf_hdr,sizeof(elf_hdr));
   11ba7:	83 ec 04             	sub    $0x4,%esp
   11baa:	6a 34                	push   $0x34
   11bac:	8d 45 b0             	lea    -0x50(%ebp),%eax
   11baf:	50                   	push   %eax
   11bb0:	ff 75 ec             	pushl  -0x14(%ebp)
   11bb3:	e8 2d 2f 00 00       	call   14ae5 <sys_read>
   11bb8:	83 c4 10             	add    $0x10,%esp
   11bbb:	89 45 e8             	mov    %eax,-0x18(%ebp)
    if(cnt<sizeof(Elf32_Ehdr)){
   11bbe:	8b 45 e8             	mov    -0x18(%ebp),%eax
   11bc1:	83 f8 33             	cmp    $0x33,%eax
   11bc4:	77 18                	ja     11bde <load_elf_file+0x6e>
        log_printf("elf hdr too small. size=%d",cnt);
   11bc6:	83 ec 08             	sub    $0x8,%esp
   11bc9:	ff 75 e8             	pushl  -0x18(%ebp)
   11bcc:	68 26 5f 01 00       	push   $0x15f26
   11bd1:	e8 a7 3e 00 00       	call   15a7d <log_printf>
   11bd6:	83 c4 10             	add    $0x10,%esp
        goto load_failed;
   11bd9:	e9 35 01 00 00       	jmp    11d13 <load_elf_file+0x1a3>
    }

    if((elf_hdr.e_ident[0]!=0x7f)||(elf_hdr.e_ident[1]!='E')
   11bde:	0f b6 45 b0          	movzbl -0x50(%ebp),%eax
   11be2:	3c 7f                	cmp    $0x7f,%al
   11be4:	75 18                	jne    11bfe <load_elf_file+0x8e>
   11be6:	0f b6 45 b1          	movzbl -0x4f(%ebp),%eax
   11bea:	3c 45                	cmp    $0x45,%al
   11bec:	75 10                	jne    11bfe <load_elf_file+0x8e>
		|| (elf_hdr.e_ident[2]!='L')||(elf_hdr.e_ident[3]!='F')){
   11bee:	0f b6 45 b2          	movzbl -0x4e(%ebp),%eax
   11bf2:	3c 4c                	cmp    $0x4c,%al
   11bf4:	75 08                	jne    11bfe <load_elf_file+0x8e>
   11bf6:	0f b6 45 b3          	movzbl -0x4d(%ebp),%eax
   11bfa:	3c 46                	cmp    $0x46,%al
   11bfc:	74 15                	je     11c13 <load_elf_file+0xa3>
            log_printf("check elf ident failed.");
   11bfe:	83 ec 0c             	sub    $0xc,%esp
   11c01:	68 41 5f 01 00       	push   $0x15f41
   11c06:	e8 72 3e 00 00       	call   15a7d <log_printf>
   11c0b:	83 c4 10             	add    $0x10,%esp
			goto load_failed;
   11c0e:	e9 00 01 00 00       	jmp    11d13 <load_elf_file+0x1a3>
	}

    uint32_t e_phoff=elf_hdr.e_phoff;
   11c13:	8b 45 cc             	mov    -0x34(%ebp),%eax
   11c16:	89 45 f4             	mov    %eax,-0xc(%ebp)
    for(int i=0;i<elf_hdr.e_phnum;i++,e_phoff+=elf_hdr.e_phentsize){
   11c19:	c7 45 f0 00 00 00 00 	movl   $0x0,-0x10(%ebp)
   11c20:	e9 cb 00 00 00       	jmp    11cf0 <load_elf_file+0x180>
        if(sys_lseek(file,e_phoff,0)<0){
   11c25:	8b 45 f4             	mov    -0xc(%ebp),%eax
   11c28:	83 ec 04             	sub    $0x4,%esp
   11c2b:	6a 00                	push   $0x0
   11c2d:	50                   	push   %eax
   11c2e:	ff 75 ec             	pushl  -0x14(%ebp)
   11c31:	e8 83 2f 00 00       	call   14bb9 <sys_lseek>
   11c36:	83 c4 10             	add    $0x10,%esp
   11c39:	85 c0                	test   %eax,%eax
   11c3b:	79 15                	jns    11c52 <load_elf_file+0xe2>
            log_printf("read file failed.");
   11c3d:	83 ec 0c             	sub    $0xc,%esp
   11c40:	68 04 5f 01 00       	push   $0x15f04
   11c45:	e8 33 3e 00 00       	call   15a7d <log_printf>
   11c4a:	83 c4 10             	add    $0x10,%esp
            goto load_failed;
   11c4d:	e9 c1 00 00 00       	jmp    11d13 <load_elf_file+0x1a3>
        }

        cnt=sys_read(file,(char*)&elf_phdr,sizeof(elf_phdr));
   11c52:	83 ec 04             	sub    $0x4,%esp
   11c55:	6a 20                	push   $0x20
   11c57:	8d 45 90             	lea    -0x70(%ebp),%eax
   11c5a:	50                   	push   %eax
   11c5b:	ff 75 ec             	pushl  -0x14(%ebp)
   11c5e:	e8 82 2e 00 00       	call   14ae5 <sys_read>
   11c63:	83 c4 10             	add    $0x10,%esp
   11c66:	89 45 e8             	mov    %eax,-0x18(%ebp)
        if(cnt<sizeof(elf_phdr)){
   11c69:	8b 45 e8             	mov    -0x18(%ebp),%eax
   11c6c:	83 f8 1f             	cmp    $0x1f,%eax
   11c6f:	77 15                	ja     11c86 <load_elf_file+0x116>
            log_printf("read file failed.");
   11c71:	83 ec 0c             	sub    $0xc,%esp
   11c74:	68 04 5f 01 00       	push   $0x15f04
   11c79:	e8 ff 3d 00 00       	call   15a7d <log_printf>
   11c7e:	83 c4 10             	add    $0x10,%esp
            goto load_failed;
   11c81:	e9 8d 00 00 00       	jmp    11d13 <load_elf_file+0x1a3>
        }

        if((elf_phdr.p_type!=1)|| (elf_phdr.p_vaddr<MEMORY_TASK_BASE)){
   11c86:	8b 45 90             	mov    -0x70(%ebp),%eax
   11c89:	83 f8 01             	cmp    $0x1,%eax
   11c8c:	75 53                	jne    11ce1 <load_elf_file+0x171>
   11c8e:	8b 45 98             	mov    -0x68(%ebp),%eax
   11c91:	85 c0                	test   %eax,%eax
   11c93:	79 4c                	jns    11ce1 <load_elf_file+0x171>
            continue;
        }

        int err=load_phdr(file,&elf_phdr,page_dir);
   11c95:	83 ec 04             	sub    $0x4,%esp
   11c98:	ff 75 10             	pushl  0x10(%ebp)
   11c9b:	8d 45 90             	lea    -0x70(%ebp),%eax
   11c9e:	50                   	push   %eax
   11c9f:	ff 75 ec             	pushl  -0x14(%ebp)
   11ca2:	e8 cb fd ff ff       	call   11a72 <load_phdr>
   11ca7:	83 c4 10             	add    $0x10,%esp
   11caa:	89 45 e4             	mov    %eax,-0x1c(%ebp)
        if(err<0){
   11cad:	83 7d e4 00          	cmpl   $0x0,-0x1c(%ebp)
   11cb1:	79 12                	jns    11cc5 <load_elf_file+0x155>
            log_printf("load program failed.");
   11cb3:	83 ec 0c             	sub    $0xc,%esp
   11cb6:	68 59 5f 01 00       	push   $0x15f59
   11cbb:	e8 bd 3d 00 00       	call   15a7d <log_printf>
   11cc0:	83 c4 10             	add    $0x10,%esp
            goto load_failed;
   11cc3:	eb 4e                	jmp    11d13 <load_elf_file+0x1a3>
        }

        task->heap_start=elf_phdr.p_vaddr+elf_phdr.p_memsz;
   11cc5:	8b 55 98             	mov    -0x68(%ebp),%edx
   11cc8:	8b 45 a4             	mov    -0x5c(%ebp),%eax
   11ccb:	01 c2                	add    %eax,%edx
   11ccd:	8b 45 08             	mov    0x8(%ebp),%eax
   11cd0:	89 50 0c             	mov    %edx,0xc(%eax)
        task->heap_end=task->heap_start;
   11cd3:	8b 45 08             	mov    0x8(%ebp),%eax
   11cd6:	8b 50 0c             	mov    0xc(%eax),%edx
   11cd9:	8b 45 08             	mov    0x8(%ebp),%eax
   11cdc:	89 50 10             	mov    %edx,0x10(%eax)
   11cdf:	eb 01                	jmp    11ce2 <load_elf_file+0x172>
            continue;
   11ce1:	90                   	nop
    for(int i=0;i<elf_hdr.e_phnum;i++,e_phoff+=elf_hdr.e_phentsize){
   11ce2:	83 45 f0 01          	addl   $0x1,-0x10(%ebp)
   11ce6:	0f b7 45 da          	movzwl -0x26(%ebp),%eax
   11cea:	0f b7 c0             	movzwl %ax,%eax
   11ced:	01 45 f4             	add    %eax,-0xc(%ebp)
   11cf0:	0f b7 45 dc          	movzwl -0x24(%ebp),%eax
   11cf4:	0f b7 c0             	movzwl %ax,%eax
   11cf7:	39 45 f0             	cmp    %eax,-0x10(%ebp)
   11cfa:	0f 8c 25 ff ff ff    	jl     11c25 <load_elf_file+0xb5>
    }


    sys_close(file);
   11d00:	83 ec 0c             	sub    $0xc,%esp
   11d03:	ff 75 ec             	pushl  -0x14(%ebp)
   11d06:	e8 d2 2e 00 00       	call   14bdd <sys_close>
   11d0b:	83 c4 10             	add    $0x10,%esp
    return elf_hdr.e_entry;
   11d0e:	8b 45 c8             	mov    -0x38(%ebp),%eax
   11d11:	eb 19                	jmp    11d2c <load_elf_file+0x1bc>

load_failed:
    if(file){
   11d13:	83 7d ec 00          	cmpl   $0x0,-0x14(%ebp)
   11d17:	74 0e                	je     11d27 <load_elf_file+0x1b7>
        sys_close(file);
   11d19:	83 ec 0c             	sub    $0xc,%esp
   11d1c:	ff 75 ec             	pushl  -0x14(%ebp)
   11d1f:	e8 b9 2e 00 00       	call   14bdd <sys_close>
   11d24:	83 c4 10             	add    $0x10,%esp
    }
    return 0;
   11d27:	b8 00 00 00 00       	mov    $0x0,%eax
}
   11d2c:	c9                   	leave  
   11d2d:	c3                   	ret    

00011d2e <copy_args>:

static int copy_args(char* to,uint32_t page_dir,int argc,char**argv){
   11d2e:	55                   	push   %ebp
   11d2f:	89 e5                	mov    %esp,%ebp
   11d31:	83 ec 38             	sub    $0x38,%esp
    task_args_t task_args;
    task_args.argc=argc;
   11d34:	8b 45 10             	mov    0x10(%ebp),%eax
   11d37:	89 45 d8             	mov    %eax,-0x28(%ebp)
    task_args.argv=(char**)(to+sizeof(task_args_t));
   11d3a:	8b 45 08             	mov    0x8(%ebp),%eax
   11d3d:	83 c0 0c             	add    $0xc,%eax
   11d40:	89 45 dc             	mov    %eax,-0x24(%ebp)

    char* dest_arg=to+sizeof(task_args_t)+sizeof(char*)*argc;
   11d43:	8b 45 10             	mov    0x10(%ebp),%eax
   11d46:	83 c0 03             	add    $0x3,%eax
   11d49:	8d 14 85 00 00 00 00 	lea    0x0(,%eax,4),%edx
   11d50:	8b 45 08             	mov    0x8(%ebp),%eax
   11d53:	01 d0                	add    %edx,%eax
   11d55:	89 45 f4             	mov    %eax,-0xc(%ebp)
    char** dest_arg_tb=(char**)memory_get_paddr(page_dir,(uint32_t)(to+sizeof(task_args_t)));
   11d58:	8b 45 08             	mov    0x8(%ebp),%eax
   11d5b:	83 c0 0c             	add    $0xc,%eax
   11d5e:	83 ec 08             	sub    $0x8,%esp
   11d61:	50                   	push   %eax
   11d62:	ff 75 0c             	pushl  0xc(%ebp)
   11d65:	e8 c4 ee ff ff       	call   10c2e <memory_get_paddr>
   11d6a:	83 c4 10             	add    $0x10,%esp
   11d6d:	89 45 ec             	mov    %eax,-0x14(%ebp)

    for(int i=0;i<argc;i++){
   11d70:	c7 45 f0 00 00 00 00 	movl   $0x0,-0x10(%ebp)
   11d77:	e9 82 00 00 00       	jmp    11dfe <copy_args+0xd0>
        char* from=argv[i];
   11d7c:	8b 45 f0             	mov    -0x10(%ebp),%eax
   11d7f:	8d 14 85 00 00 00 00 	lea    0x0(,%eax,4),%edx
   11d86:	8b 45 14             	mov    0x14(%ebp),%eax
   11d89:	01 d0                	add    %edx,%eax
   11d8b:	8b 00                	mov    (%eax),%eax
   11d8d:	89 45 e8             	mov    %eax,-0x18(%ebp)
        int len=kernel_strlen(from)+1;
   11d90:	83 ec 0c             	sub    $0xc,%esp
   11d93:	ff 75 e8             	pushl  -0x18(%ebp)
   11d96:	e8 35 36 00 00       	call   153d0 <kernel_strlen>
   11d9b:	83 c4 10             	add    $0x10,%esp
   11d9e:	83 c0 01             	add    $0x1,%eax
   11da1:	89 45 e4             	mov    %eax,-0x1c(%ebp)
        int err=memory_copy_uvm_data((uint32_t)dest_arg,page_dir,(uint32_t)from,len);
   11da4:	8b 4d e4             	mov    -0x1c(%ebp),%ecx
   11da7:	8b 55 e8             	mov    -0x18(%ebp),%edx
   11daa:	8b 45 f4             	mov    -0xc(%ebp),%eax
   11dad:	51                   	push   %ecx
   11dae:	52                   	push   %edx
   11daf:	ff 75 0c             	pushl  0xc(%ebp)
   11db2:	50                   	push   %eax
   11db3:	e8 bc ee ff ff       	call   10c74 <memory_copy_uvm_data>
   11db8:	83 c4 10             	add    $0x10,%esp
   11dbb:	89 45 e0             	mov    %eax,-0x20(%ebp)
        ASSERT(err >= 0);
   11dbe:	83 7d e0 00          	cmpl   $0x0,-0x20(%ebp)
   11dc2:	79 1c                	jns    11de0 <copy_args+0xb2>
   11dc4:	68 6e 5f 01 00       	push   $0x15f6e
   11dc9:	68 94 5f 01 00       	push   $0x15f94
   11dce:	68 fb 01 00 00       	push   $0x1fb
   11dd3:	68 78 5e 01 00       	push   $0x15e78
   11dd8:	e8 d0 39 00 00       	call   157ad <panic>
   11ddd:	83 c4 10             	add    $0x10,%esp

        dest_arg_tb[i]=dest_arg;
   11de0:	8b 45 f0             	mov    -0x10(%ebp),%eax
   11de3:	8d 14 85 00 00 00 00 	lea    0x0(,%eax,4),%edx
   11dea:	8b 45 ec             	mov    -0x14(%ebp),%eax
   11ded:	01 c2                	add    %eax,%edx
   11def:	8b 45 f4             	mov    -0xc(%ebp),%eax
   11df2:	89 02                	mov    %eax,(%edx)
        dest_arg+=len;
   11df4:	8b 45 e4             	mov    -0x1c(%ebp),%eax
   11df7:	01 45 f4             	add    %eax,-0xc(%ebp)
    for(int i=0;i<argc;i++){
   11dfa:	83 45 f0 01          	addl   $0x1,-0x10(%ebp)
   11dfe:	8b 45 f0             	mov    -0x10(%ebp),%eax
   11e01:	3b 45 10             	cmp    0x10(%ebp),%eax
   11e04:	0f 8c 72 ff ff ff    	jl     11d7c <copy_args+0x4e>

    }
    return memory_copy_uvm_data((uint32_t)to,page_dir,(uint32_t)&task_args,sizeof(task_args));
   11e0a:	8d 55 d4             	lea    -0x2c(%ebp),%edx
   11e0d:	8b 45 08             	mov    0x8(%ebp),%eax
   11e10:	6a 0c                	push   $0xc
   11e12:	52                   	push   %edx
   11e13:	ff 75 0c             	pushl  0xc(%ebp)
   11e16:	50                   	push   %eax
   11e17:	e8 58 ee ff ff       	call   10c74 <memory_copy_uvm_data>
   11e1c:	83 c4 10             	add    $0x10,%esp

}
   11e1f:	c9                   	leave  
   11e20:	c3                   	ret    

00011e21 <sys_execve>:

int sys_execve(char* name,char** argv,char** env){
   11e21:	55                   	push   %ebp
   11e22:	89 e5                	mov    %esp,%ebp
   11e24:	83 ec 28             	sub    $0x28,%esp
    task_t* task=task_current();
   11e27:	e8 b0 f7 ff ff       	call   115dc <task_current>
   11e2c:	89 45 f4             	mov    %eax,-0xc(%ebp)

    kernel_strncpy(task->name,get_file_name(name),TASK_NAME_SIZE);
   11e2f:	83 ec 0c             	sub    $0xc,%esp
   11e32:	ff 75 08             	pushl  0x8(%ebp)
   11e35:	e8 d6 39 00 00       	call   15810 <get_file_name>
   11e3a:	83 c4 10             	add    $0x10,%esp
   11e3d:	89 c2                	mov    %eax,%edx
   11e3f:	8b 45 f4             	mov    -0xc(%ebp),%eax
   11e42:	83 c0 20             	add    $0x20,%eax
   11e45:	83 ec 04             	sub    $0x4,%esp
   11e48:	6a 20                	push   $0x20
   11e4a:	52                   	push   %edx
   11e4b:	50                   	push   %eax
   11e4c:	e8 95 34 00 00       	call   152e6 <kernel_strncpy>
   11e51:	83 c4 10             	add    $0x10,%esp

    uint32_t old_page_dir=task->tss.cr3;
   11e54:	8b 45 f4             	mov    -0xc(%ebp),%eax
   11e57:	8b 80 74 02 00 00    	mov    0x274(%eax),%eax
   11e5d:	89 45 f0             	mov    %eax,-0x10(%ebp)
    uint32_t new_page_dir=memory_create_uvm();
   11e60:	e8 63 e9 ff ff       	call   107c8 <memory_create_uvm>
   11e65:	89 45 ec             	mov    %eax,-0x14(%ebp)

    if(!new_page_dir){
   11e68:	83 7d ec 00          	cmpl   $0x0,-0x14(%ebp)
   11e6c:	0f 84 1f 01 00 00    	je     11f91 <sys_execve+0x170>
        goto exec_failed;
    }

    uint32_t entry=load_elf_file(task,name,new_page_dir);
   11e72:	83 ec 04             	sub    $0x4,%esp
   11e75:	ff 75 ec             	pushl  -0x14(%ebp)
   11e78:	ff 75 08             	pushl  0x8(%ebp)
   11e7b:	ff 75 f4             	pushl  -0xc(%ebp)
   11e7e:	e8 ed fc ff ff       	call   11b70 <load_elf_file>
   11e83:	83 c4 10             	add    $0x10,%esp
   11e86:	89 45 e8             	mov    %eax,-0x18(%ebp)

    if(entry==0){
   11e89:	83 7d e8 00          	cmpl   $0x0,-0x18(%ebp)
   11e8d:	0f 84 01 01 00 00    	je     11f94 <sys_execve+0x173>
        goto exec_failed;
    }

    uint32_t stack_top=MEM_TASK_STACK_TOP-MEM_TASK_ARG_SIZE;
   11e93:	c7 45 e4 00 c0 ff df 	movl   $0xdfffc000,-0x1c(%ebp)

    int err=memory_alloc_for_page_dir(new_page_dir,
   11e9a:	6a 07                	push   $0x7
   11e9c:	68 00 40 1f 00       	push   $0x1f4000
   11ea1:	68 00 c0 e0 df       	push   $0xdfe0c000
   11ea6:	ff 75 ec             	pushl  -0x14(%ebp)
   11ea9:	e8 9f e9 ff ff       	call   1084d <memory_alloc_for_page_dir>
   11eae:	83 c4 10             	add    $0x10,%esp
   11eb1:	89 45 e0             	mov    %eax,-0x20(%ebp)
        MEM_TASK_STACK_TOP-MEM_TASK_STACK_SIZE,MEM_TASK_STACK_SIZE,
        PTE_P | PTE_U | PTE_W
    );

    if(err < 0){
   11eb4:	83 7d e0 00          	cmpl   $0x0,-0x20(%ebp)
   11eb8:	0f 88 d9 00 00 00    	js     11f97 <sys_execve+0x176>
        goto exec_failed;
    }
    
    int argc=string_count(argv);
   11ebe:	83 ec 0c             	sub    $0xc,%esp
   11ec1:	ff 75 0c             	pushl  0xc(%ebp)
   11ec4:	e8 1a 39 00 00       	call   157e3 <string_count>
   11ec9:	83 c4 10             	add    $0x10,%esp
   11ecc:	89 45 dc             	mov    %eax,-0x24(%ebp)
    err=copy_args((char*)stack_top,new_page_dir,argc,argv);
   11ecf:	8b 45 e4             	mov    -0x1c(%ebp),%eax
   11ed2:	ff 75 0c             	pushl  0xc(%ebp)
   11ed5:	ff 75 dc             	pushl  -0x24(%ebp)
   11ed8:	ff 75 ec             	pushl  -0x14(%ebp)
   11edb:	50                   	push   %eax
   11edc:	e8 4d fe ff ff       	call   11d2e <copy_args>
   11ee1:	83 c4 10             	add    $0x10,%esp
   11ee4:	89 45 e0             	mov    %eax,-0x20(%ebp)
    if(err<0){
   11ee7:	83 7d e0 00          	cmpl   $0x0,-0x20(%ebp)
   11eeb:	0f 88 a9 00 00 00    	js     11f9a <sys_execve+0x179>
        goto exec_failed;
    }

    syscall_frame_t* frame=(syscall_frame_t*)(task->tss.esp0-sizeof(syscall_frame_t));
   11ef1:	8b 45 f4             	mov    -0xc(%ebp),%eax
   11ef4:	8b 80 5c 02 00 00    	mov    0x25c(%eax),%eax
   11efa:	83 e8 58             	sub    $0x58,%eax
   11efd:	89 45 d8             	mov    %eax,-0x28(%ebp)
    frame->eip=entry;
   11f00:	8b 45 d8             	mov    -0x28(%ebp),%eax
   11f03:	8b 55 e8             	mov    -0x18(%ebp),%edx
   11f06:	89 50 34             	mov    %edx,0x34(%eax)
    frame->eax=frame->ebx=frame->edx=0;
   11f09:	8b 45 d8             	mov    -0x28(%ebp),%eax
   11f0c:	c7 40 28 00 00 00 00 	movl   $0x0,0x28(%eax)
   11f13:	8b 45 d8             	mov    -0x28(%ebp),%eax
   11f16:	8b 50 28             	mov    0x28(%eax),%edx
   11f19:	8b 45 d8             	mov    -0x28(%ebp),%eax
   11f1c:	89 50 24             	mov    %edx,0x24(%eax)
   11f1f:	8b 45 d8             	mov    -0x28(%ebp),%eax
   11f22:	8b 50 24             	mov    0x24(%eax),%edx
   11f25:	8b 45 d8             	mov    -0x28(%ebp),%eax
   11f28:	89 50 30             	mov    %edx,0x30(%eax)
    frame->esi=frame->edi=frame->ebp=0;
   11f2b:	8b 45 d8             	mov    -0x28(%ebp),%eax
   11f2e:	c7 40 1c 00 00 00 00 	movl   $0x0,0x1c(%eax)
   11f35:	8b 45 d8             	mov    -0x28(%ebp),%eax
   11f38:	8b 50 1c             	mov    0x1c(%eax),%edx
   11f3b:	8b 45 d8             	mov    -0x28(%ebp),%eax
   11f3e:	89 50 14             	mov    %edx,0x14(%eax)
   11f41:	8b 45 d8             	mov    -0x28(%ebp),%eax
   11f44:	8b 50 14             	mov    0x14(%eax),%edx
   11f47:	8b 45 d8             	mov    -0x28(%ebp),%eax
   11f4a:	89 50 18             	mov    %edx,0x18(%eax)
    frame->eflags=EFLAGS_DEFAULT|EFLAGS_IF;
   11f4d:	8b 45 d8             	mov    -0x28(%ebp),%eax
   11f50:	c7 00 02 02 00 00    	movl   $0x202,(%eax)

    frame->esp=stack_top-sizeof(uint32_t)*SYSCALL_PARAM_COUNT;
   11f56:	8b 45 e4             	mov    -0x1c(%ebp),%eax
   11f59:	8d 50 ec             	lea    -0x14(%eax),%edx
   11f5c:	8b 45 d8             	mov    -0x28(%ebp),%eax
   11f5f:	89 50 50             	mov    %edx,0x50(%eax)

    task->tss.cr3=new_page_dir;
   11f62:	8b 45 f4             	mov    -0xc(%ebp),%eax
   11f65:	8b 55 ec             	mov    -0x14(%ebp),%edx
   11f68:	89 90 74 02 00 00    	mov    %edx,0x274(%eax)
    mmu_set_page_dir(new_page_dir);
   11f6e:	83 ec 0c             	sub    $0xc,%esp
   11f71:	ff 75 ec             	pushl  -0x14(%ebp)
   11f74:	e8 d1 ef ff ff       	call   10f4a <mmu_set_page_dir>
   11f79:	83 c4 10             	add    $0x10,%esp

    memory_destroy_uvm(old_page_dir);
   11f7c:	83 ec 0c             	sub    $0xc,%esp
   11f7f:	ff 75 f0             	pushl  -0x10(%ebp)
   11f82:	e8 6b ea ff ff       	call   109f2 <memory_destroy_uvm>
   11f87:	83 c4 10             	add    $0x10,%esp

    return 0;
   11f8a:	b8 00 00 00 00       	mov    $0x0,%eax
   11f8f:	eb 3d                	jmp    11fce <sys_execve+0x1ad>
        goto exec_failed;
   11f91:	90                   	nop
   11f92:	eb 07                	jmp    11f9b <sys_execve+0x17a>
        goto exec_failed;
   11f94:	90                   	nop
   11f95:	eb 04                	jmp    11f9b <sys_execve+0x17a>
        goto exec_failed;
   11f97:	90                   	nop
   11f98:	eb 01                	jmp    11f9b <sys_execve+0x17a>
        goto exec_failed;
   11f9a:	90                   	nop

exec_failed:
    if(new_page_dir){
   11f9b:	83 7d ec 00          	cmpl   $0x0,-0x14(%ebp)
   11f9f:	74 28                	je     11fc9 <sys_execve+0x1a8>
        task->tss.cr3=old_page_dir;
   11fa1:	8b 45 f4             	mov    -0xc(%ebp),%eax
   11fa4:	8b 55 f0             	mov    -0x10(%ebp),%edx
   11fa7:	89 90 74 02 00 00    	mov    %edx,0x274(%eax)
        mmu_set_page_dir(old_page_dir);
   11fad:	83 ec 0c             	sub    $0xc,%esp
   11fb0:	ff 75 f0             	pushl  -0x10(%ebp)
   11fb3:	e8 92 ef ff ff       	call   10f4a <mmu_set_page_dir>
   11fb8:	83 c4 10             	add    $0x10,%esp

        memory_destroy_uvm(new_page_dir);
   11fbb:	83 ec 0c             	sub    $0xc,%esp
   11fbe:	ff 75 ec             	pushl  -0x14(%ebp)
   11fc1:	e8 2c ea ff ff       	call   109f2 <memory_destroy_uvm>
   11fc6:	83 c4 10             	add    $0x10,%esp
    }
    return -1;
   11fc9:	b8 ff ff ff ff       	mov    $0xffffffff,%eax
}
   11fce:	c9                   	leave  
   11fcf:	c3                   	ret    

00011fd0 <task_file>:
/**
 * @brief 获取文件描述符对应的文件
 * @param fd 文件描述符
 * @return 获取成功返回对应的文件指针，不成功返回NULL
 */
file_t* task_file(int fd){
   11fd0:	55                   	push   %ebp
   11fd1:	89 e5                	mov    %esp,%ebp
   11fd3:	83 ec 10             	sub    $0x10,%esp
    if((fd>=0) && (fd<TASK_OFILE_NR)){
   11fd6:	83 7d 08 00          	cmpl   $0x0,0x8(%ebp)
   11fda:	78 1e                	js     11ffa <task_file+0x2a>
   11fdc:	83 7d 08 7f          	cmpl   $0x7f,0x8(%ebp)
   11fe0:	7f 18                	jg     11ffa <task_file+0x2a>
        file_t* file=task_current()->file_table[fd];
   11fe2:	e8 f5 f5 ff ff       	call   115dc <task_current>
   11fe7:	89 c2                	mov    %eax,%edx
   11fe9:	8b 45 08             	mov    0x8(%ebp),%eax
   11fec:	83 c0 10             	add    $0x10,%eax
   11fef:	8b 04 82             	mov    (%edx,%eax,4),%eax
   11ff2:	89 45 fc             	mov    %eax,-0x4(%ebp)
        return file;
   11ff5:	8b 45 fc             	mov    -0x4(%ebp),%eax
   11ff8:	eb 05                	jmp    11fff <task_file+0x2f>
    }

    return (file_t*)0;
   11ffa:	b8 00 00 00 00       	mov    $0x0,%eax
}
   11fff:	c9                   	leave  
   12000:	c3                   	ret    

00012001 <task_alloc_fd>:
/**
 * @brief 给文件分配描述符
 * @param file 指向一个文件的指针
 * @return 如果分配成功返回对应的fd如果分配失败返回-1
 */
int task_alloc_fd(file_t* file){
   12001:	55                   	push   %ebp
   12002:	89 e5                	mov    %esp,%ebp
   12004:	83 ec 10             	sub    $0x10,%esp
    task_t* task=task_current();
   12007:	e8 d0 f5 ff ff       	call   115dc <task_current>
   1200c:	89 45 f8             	mov    %eax,-0x8(%ebp)

    for(int i=0;i<TASK_OFILE_NR;i++){
   1200f:	c7 45 fc 00 00 00 00 	movl   $0x0,-0x4(%ebp)
   12016:	eb 2d                	jmp    12045 <task_alloc_fd+0x44>
        file_t* p=task->file_table[i];
   12018:	8b 45 f8             	mov    -0x8(%ebp),%eax
   1201b:	8b 55 fc             	mov    -0x4(%ebp),%edx
   1201e:	83 c2 10             	add    $0x10,%edx
   12021:	8b 04 90             	mov    (%eax,%edx,4),%eax
   12024:	89 45 f4             	mov    %eax,-0xc(%ebp)
        if(p==(file_t*)0){
   12027:	83 7d f4 00          	cmpl   $0x0,-0xc(%ebp)
   1202b:	75 14                	jne    12041 <task_alloc_fd+0x40>
            task->file_table[i]=file;
   1202d:	8b 45 f8             	mov    -0x8(%ebp),%eax
   12030:	8b 55 fc             	mov    -0x4(%ebp),%edx
   12033:	8d 4a 10             	lea    0x10(%edx),%ecx
   12036:	8b 55 08             	mov    0x8(%ebp),%edx
   12039:	89 14 88             	mov    %edx,(%eax,%ecx,4)
            return i;
   1203c:	8b 45 fc             	mov    -0x4(%ebp),%eax
   1203f:	eb 0f                	jmp    12050 <task_alloc_fd+0x4f>
    for(int i=0;i<TASK_OFILE_NR;i++){
   12041:	83 45 fc 01          	addl   $0x1,-0x4(%ebp)
   12045:	83 7d fc 7f          	cmpl   $0x7f,-0x4(%ebp)
   12049:	7e cd                	jle    12018 <task_alloc_fd+0x17>
        }
    }

    return -1;
   1204b:	b8 ff ff ff ff       	mov    $0xffffffff,%eax
}
   12050:	c9                   	leave  
   12051:	c3                   	ret    

00012052 <task_remove_fd>:

/**
 * @brief 释放一个文件描述符
 * @param fd 要释放的文件描述符
 */
void task_remove_fd(int fd){
   12052:	55                   	push   %ebp
   12053:	89 e5                	mov    %esp,%ebp
   if((fd>=0) && (fd<TASK_OFILE_NR)){
   12055:	83 7d 08 00          	cmpl   $0x0,0x8(%ebp)
   12059:	78 1a                	js     12075 <task_remove_fd+0x23>
   1205b:	83 7d 08 7f          	cmpl   $0x7f,0x8(%ebp)
   1205f:	7f 14                	jg     12075 <task_remove_fd+0x23>
       task_current()->file_table[fd]=(file_t*)0;
   12061:	e8 76 f5 ff ff       	call   115dc <task_current>
   12066:	89 c2                	mov    %eax,%edx
   12068:	8b 45 08             	mov    0x8(%ebp),%eax
   1206b:	83 c0 10             	add    $0x10,%eax
   1206e:	c7 04 82 00 00 00 00 	movl   $0x0,(%edx,%eax,4)
    }
}
   12075:	90                   	nop
   12076:	5d                   	pop    %ebp
   12077:	c3                   	ret    

00012078 <sys_exit>:

void sys_exit(int status){
   12078:	55                   	push   %ebp
   12079:	89 e5                	mov    %esp,%ebp
   1207b:	83 ec 28             	sub    $0x28,%esp
    task_t* curr_task=task_current();
   1207e:	e8 59 f5 ff ff       	call   115dc <task_current>
   12083:	89 45 e8             	mov    %eax,-0x18(%ebp)

    for(int fd=0;fd<TASK_OFILE_NR;fd++){
   12086:	c7 45 f4 00 00 00 00 	movl   $0x0,-0xc(%ebp)
   1208d:	eb 37                	jmp    120c6 <sys_exit+0x4e>
        file_t* file=curr_task->file_table[fd];
   1208f:	8b 45 e8             	mov    -0x18(%ebp),%eax
   12092:	8b 55 f4             	mov    -0xc(%ebp),%edx
   12095:	83 c2 10             	add    $0x10,%edx
   12098:	8b 04 90             	mov    (%eax,%edx,4),%eax
   1209b:	89 45 d8             	mov    %eax,-0x28(%ebp)
        if(file){
   1209e:	83 7d d8 00          	cmpl   $0x0,-0x28(%ebp)
   120a2:	74 1e                	je     120c2 <sys_exit+0x4a>
            sys_close(fd);
   120a4:	83 ec 0c             	sub    $0xc,%esp
   120a7:	ff 75 f4             	pushl  -0xc(%ebp)
   120aa:	e8 2e 2b 00 00       	call   14bdd <sys_close>
   120af:	83 c4 10             	add    $0x10,%esp
            curr_task->file_table[fd]=(file_t*)0;
   120b2:	8b 45 e8             	mov    -0x18(%ebp),%eax
   120b5:	8b 55 f4             	mov    -0xc(%ebp),%edx
   120b8:	83 c2 10             	add    $0x10,%edx
   120bb:	c7 04 90 00 00 00 00 	movl   $0x0,(%eax,%edx,4)
    for(int fd=0;fd<TASK_OFILE_NR;fd++){
   120c2:	83 45 f4 01          	addl   $0x1,-0xc(%ebp)
   120c6:	83 7d f4 7f          	cmpl   $0x7f,-0xc(%ebp)
   120ca:	7e c3                	jle    1208f <sys_exit+0x17>
        }
    }

    int move_child=0;
   120cc:	c7 45 f0 00 00 00 00 	movl   $0x0,-0x10(%ebp)

    mutex_lock(&table_mutex);
   120d3:	83 ec 0c             	sub    $0xc,%esp
   120d6:	68 c0 19 03 00       	push   $0x319c0
   120db:	e8 b0 2c 00 00       	call   14d90 <mutex_lock>
   120e0:	83 c4 10             	add    $0x10,%esp

    for(int i=0;i<TASK_NR;i++){
   120e3:	c7 45 ec 00 00 00 00 	movl   $0x0,-0x14(%ebp)
   120ea:	eb 3b                	jmp    12127 <sys_exit+0xaf>
        task_t* task=task_table+i;
   120ec:	8b 45 ec             	mov    -0x14(%ebp),%eax
   120ef:	69 c0 c8 02 00 00    	imul   $0x2c8,%eax,%eax
   120f5:	05 c0 b5 01 00       	add    $0x1b5c0,%eax
   120fa:	89 45 dc             	mov    %eax,-0x24(%ebp)
        if(task->parent==curr_task){
   120fd:	8b 45 dc             	mov    -0x24(%ebp),%eax
   12100:	8b 40 08             	mov    0x8(%eax),%eax
   12103:	39 45 e8             	cmp    %eax,-0x18(%ebp)
   12106:	75 1b                	jne    12123 <sys_exit+0xab>
            task->parent=&task_manager.first_task;
   12108:	8b 45 dc             	mov    -0x24(%ebp),%eax
   1210b:	c7 40 08 28 a0 01 00 	movl   $0x1a028,0x8(%eax)
            if(task->state==TASK_ZOMBIE){
   12112:	8b 45 dc             	mov    -0x24(%ebp),%eax
   12115:	8b 00                	mov    (%eax),%eax
   12117:	83 f8 05             	cmp    $0x5,%eax
   1211a:	75 07                	jne    12123 <sys_exit+0xab>
                move_child=1;  
   1211c:	c7 45 f0 01 00 00 00 	movl   $0x1,-0x10(%ebp)
    for(int i=0;i<TASK_NR;i++){
   12123:	83 45 ec 01          	addl   $0x1,-0x14(%ebp)
   12127:	83 7d ec 7f          	cmpl   $0x7f,-0x14(%ebp)
   1212b:	7e bf                	jle    120ec <sys_exit+0x74>
            }
        }
    }

    mutex_unlock(&table_mutex);
   1212d:	83 ec 0c             	sub    $0xc,%esp
   12130:	68 c0 19 03 00       	push   $0x319c0
   12135:	e8 e5 2c 00 00       	call   14e1f <mutex_unlock>
   1213a:	83 c4 10             	add    $0x10,%esp

    irq_state_t state=irq_enter_protection();
   1213d:	e8 1c 0d 00 00       	call   12e5e <irq_enter_protection>
   12142:	89 45 e4             	mov    %eax,-0x1c(%ebp)

    task_t* parent=curr_task->parent;
   12145:	8b 45 e8             	mov    -0x18(%ebp),%eax
   12148:	8b 40 08             	mov    0x8(%eax),%eax
   1214b:	89 45 e0             	mov    %eax,-0x20(%ebp)
    if(move_child && (parent!=&task_manager.first_task)){
   1214e:	83 7d f0 00          	cmpl   $0x0,-0x10(%ebp)
   12152:	74 23                	je     12177 <sys_exit+0xff>
   12154:	81 7d e0 28 a0 01 00 	cmpl   $0x1a028,-0x20(%ebp)
   1215b:	74 1a                	je     12177 <sys_exit+0xff>
        if(task_manager.first_task.state==TASK_WAITING){
   1215d:	a1 28 a0 01 00       	mov    0x1a028,%eax
   12162:	83 f8 04             	cmp    $0x4,%eax
   12165:	75 10                	jne    12177 <sys_exit+0xff>
            task_set_ready(&task_manager.first_task);
   12167:	83 ec 0c             	sub    $0xc,%esp
   1216a:	68 28 a0 01 00       	push   $0x1a028
   1216f:	e8 c0 f3 ff ff       	call   11534 <task_set_ready>
   12174:	83 c4 10             	add    $0x10,%esp
        }
    }

    if(parent->state==TASK_WAITING){
   12177:	8b 45 e0             	mov    -0x20(%ebp),%eax
   1217a:	8b 00                	mov    (%eax),%eax
   1217c:	83 f8 04             	cmp    $0x4,%eax
   1217f:	75 12                	jne    12193 <sys_exit+0x11b>
        task_set_ready(curr_task->parent);
   12181:	8b 45 e8             	mov    -0x18(%ebp),%eax
   12184:	8b 40 08             	mov    0x8(%eax),%eax
   12187:	83 ec 0c             	sub    $0xc,%esp
   1218a:	50                   	push   %eax
   1218b:	e8 a4 f3 ff ff       	call   11534 <task_set_ready>
   12190:	83 c4 10             	add    $0x10,%esp
    }

    curr_task->status=status;
   12193:	8b 45 e8             	mov    -0x18(%ebp),%eax
   12196:	8b 55 08             	mov    0x8(%ebp),%edx
   12199:	89 90 c4 02 00 00    	mov    %edx,0x2c4(%eax)
    curr_task->state=TASK_ZOMBIE;
   1219f:	8b 45 e8             	mov    -0x18(%ebp),%eax
   121a2:	c7 00 05 00 00 00    	movl   $0x5,(%eax)
    task_set_block(curr_task);
   121a8:	83 ec 0c             	sub    $0xc,%esp
   121ab:	ff 75 e8             	pushl  -0x18(%ebp)
   121ae:	e8 b7 f3 ff ff       	call   1156a <task_set_block>
   121b3:	83 c4 10             	add    $0x10,%esp

    irq_leave_protection(state);
   121b6:	83 ec 0c             	sub    $0xc,%esp
   121b9:	ff 75 e4             	pushl  -0x1c(%ebp)
   121bc:	e8 b5 0c 00 00       	call   12e76 <irq_leave_protection>
   121c1:	83 c4 10             	add    $0x10,%esp
    
    task_dispatch();
   121c4:	e8 7e f4 ff ff       	call   11647 <task_dispatch>


}
   121c9:	90                   	nop
   121ca:	c9                   	leave  
   121cb:	c3                   	ret    

000121cc <sys_wait>:
/**
 * @brief 等待子进程结束
 * @param status 退出状态码
 * @return 返回子进程的pid
 */
int sys_wait(int* status){
   121cc:	55                   	push   %ebp
   121cd:	89 e5                	mov    %esp,%ebp
   121cf:	83 ec 28             	sub    $0x28,%esp
    task_t* curr_task=task_current();
   121d2:	e8 05 f4 ff ff       	call   115dc <task_current>
   121d7:	89 45 f0             	mov    %eax,-0x10(%ebp)
    for(;;){
        mutex_lock(&table_mutex);
   121da:	83 ec 0c             	sub    $0xc,%esp
   121dd:	68 c0 19 03 00       	push   $0x319c0
   121e2:	e8 a9 2b 00 00       	call   14d90 <mutex_lock>
   121e7:	83 c4 10             	add    $0x10,%esp

        for(int i=0;i<TASK_NR;i++){
   121ea:	c7 45 f4 00 00 00 00 	movl   $0x0,-0xc(%ebp)
   121f1:	eb 7a                	jmp    1226d <sys_wait+0xa1>
            task_t* task=task_table+i;
   121f3:	8b 45 f4             	mov    -0xc(%ebp),%eax
   121f6:	69 c0 c8 02 00 00    	imul   $0x2c8,%eax,%eax
   121fc:	05 c0 b5 01 00       	add    $0x1b5c0,%eax
   12201:	89 45 e8             	mov    %eax,-0x18(%ebp)
            if(task->parent != curr_task){
   12204:	8b 45 e8             	mov    -0x18(%ebp),%eax
   12207:	8b 40 08             	mov    0x8(%eax),%eax
   1220a:	39 45 f0             	cmp    %eax,-0x10(%ebp)
   1220d:	75 59                	jne    12268 <sys_wait+0x9c>
                continue;
            }    

            if(task->state==TASK_ZOMBIE){
   1220f:	8b 45 e8             	mov    -0x18(%ebp),%eax
   12212:	8b 00                	mov    (%eax),%eax
   12214:	83 f8 05             	cmp    $0x5,%eax
   12217:	75 50                	jne    12269 <sys_wait+0x9d>
                int pid=task->pid;
   12219:	8b 45 e8             	mov    -0x18(%ebp),%eax
   1221c:	8b 40 04             	mov    0x4(%eax),%eax
   1221f:	89 45 e4             	mov    %eax,-0x1c(%ebp)
                *status=task->status;
   12222:	8b 45 e8             	mov    -0x18(%ebp),%eax
   12225:	8b 90 c4 02 00 00    	mov    0x2c4(%eax),%edx
   1222b:	8b 45 08             	mov    0x8(%ebp),%eax
   1222e:	89 10                	mov    %edx,(%eax)
                
                task_uninit(task);
   12230:	83 ec 0c             	sub    $0xc,%esp
   12233:	ff 75 e8             	pushl  -0x18(%ebp)
   12236:	e8 6e f0 ff ff       	call   112a9 <task_uninit>
   1223b:	83 c4 10             	add    $0x10,%esp
                kernel_memset(task,0,sizeof(task_t));
   1223e:	83 ec 04             	sub    $0x4,%esp
   12241:	68 c8 02 00 00       	push   $0x2c8
   12246:	6a 00                	push   $0x0
   12248:	ff 75 e8             	pushl  -0x18(%ebp)
   1224b:	e8 0a 32 00 00       	call   1545a <kernel_memset>
   12250:	83 c4 10             	add    $0x10,%esp

                mutex_unlock(&table_mutex);
   12253:	83 ec 0c             	sub    $0xc,%esp
   12256:	68 c0 19 03 00       	push   $0x319c0
   1225b:	e8 bf 2b 00 00       	call   14e1f <mutex_unlock>
   12260:	83 c4 10             	add    $0x10,%esp

                return pid;
   12263:	8b 45 e4             	mov    -0x1c(%ebp),%eax
   12266:	eb 52                	jmp    122ba <sys_wait+0xee>
                continue;
   12268:	90                   	nop
        for(int i=0;i<TASK_NR;i++){
   12269:	83 45 f4 01          	addl   $0x1,-0xc(%ebp)
   1226d:	83 7d f4 7f          	cmpl   $0x7f,-0xc(%ebp)
   12271:	7e 80                	jle    121f3 <sys_wait+0x27>
            }
        }

        irq_state_t state=irq_enter_protection();
   12273:	e8 e6 0b 00 00       	call   12e5e <irq_enter_protection>
   12278:	89 45 ec             	mov    %eax,-0x14(%ebp)

        task_set_block(curr_task);
   1227b:	83 ec 0c             	sub    $0xc,%esp
   1227e:	ff 75 f0             	pushl  -0x10(%ebp)
   12281:	e8 e4 f2 ff ff       	call   1156a <task_set_block>
   12286:	83 c4 10             	add    $0x10,%esp
        curr_task->state=TASK_WAITING;
   12289:	8b 45 f0             	mov    -0x10(%ebp),%eax
   1228c:	c7 00 04 00 00 00    	movl   $0x4,(%eax)

        irq_leave_protection(state);
   12292:	83 ec 0c             	sub    $0xc,%esp
   12295:	ff 75 ec             	pushl  -0x14(%ebp)
   12298:	e8 d9 0b 00 00       	call   12e76 <irq_leave_protection>
   1229d:	83 c4 10             	add    $0x10,%esp

        mutex_unlock(&table_mutex);
   122a0:	83 ec 0c             	sub    $0xc,%esp
   122a3:	68 c0 19 03 00       	push   $0x319c0
   122a8:	e8 72 2b 00 00       	call   14e1f <mutex_unlock>
   122ad:	83 c4 10             	add    $0x10,%esp

        task_dispatch();
   122b0:	e8 92 f3 ff ff       	call   11647 <task_dispatch>
    for(;;){
   122b5:	e9 20 ff ff ff       	jmp    121da <sys_wait+0xe>
    }
   122ba:	c9                   	leave  
   122bb:	c3                   	ret    

000122bc <lgdt>:
static inline void lgdt(uint32_t start,uint32_t size){
   122bc:	55                   	push   %ebp
   122bd:	89 e5                	mov    %esp,%ebp
   122bf:	83 ec 10             	sub    $0x10,%esp
    gdt.start31_16=start>>16;
   122c2:	8b 45 08             	mov    0x8(%ebp),%eax
   122c5:	c1 e8 10             	shr    $0x10,%eax
   122c8:	66 89 45 fe          	mov    %ax,-0x2(%ebp)
    gdt.start15_0=start&0xFFFF;
   122cc:	8b 45 08             	mov    0x8(%ebp),%eax
   122cf:	66 89 45 fc          	mov    %ax,-0x4(%ebp)
    gdt.limit=size-1;
   122d3:	8b 45 0c             	mov    0xc(%ebp),%eax
   122d6:	83 e8 01             	sub    $0x1,%eax
   122d9:	66 89 45 fa          	mov    %ax,-0x6(%ebp)
    __asm__ __volatile__(
   122dd:	0f 01 55 fa          	lgdtl  -0x6(%ebp)
}
   122e1:	90                   	nop
   122e2:	c9                   	leave  
   122e3:	c3                   	ret    

000122e4 <far_jump>:
static inline void far_jump(uint32_t selector,uint32_t offset){
   122e4:	55                   	push   %ebp
   122e5:	89 e5                	mov    %esp,%ebp
   122e7:	83 ec 10             	sub    $0x10,%esp
    uint32_t addr[]={offset,selector};
   122ea:	8b 45 0c             	mov    0xc(%ebp),%eax
   122ed:	89 45 f8             	mov    %eax,-0x8(%ebp)
   122f0:	8b 45 08             	mov    0x8(%ebp),%eax
   122f3:	89 45 fc             	mov    %eax,-0x4(%ebp)
    __asm__ __volatile__(
   122f6:	8d 45 f8             	lea    -0x8(%ebp),%eax
   122f9:	ff 28                	ljmp   *(%eax)
}
   122fb:	90                   	nop
   122fc:	c9                   	leave  
   122fd:	c3                   	ret    

000122fe <segment_desc_set>:
 * @param base 段基址
 * @param limit 段界限
 * @param attr 段属性
 * @return void
*/
void segment_desc_set(int selector,uint32_t base,uint32_t limit,uint16_t attr){
   122fe:	55                   	push   %ebp
   122ff:	89 e5                	mov    %esp,%ebp
   12301:	83 ec 14             	sub    $0x14,%esp
   12304:	8b 45 14             	mov    0x14(%ebp),%eax
   12307:	66 89 45 ec          	mov    %ax,-0x14(%ebp)
    segment_desc_t* desc=gdt_table+(selector >> 3);
   1230b:	8b 45 08             	mov    0x8(%ebp),%eax
   1230e:	c1 f8 03             	sar    $0x3,%eax
   12311:	c1 e0 03             	shl    $0x3,%eax
   12314:	05 e0 19 03 00       	add    $0x319e0,%eax
   12319:	89 45 fc             	mov    %eax,-0x4(%ebp)

    // 设置G标志位决定粒度4kb or 1B
    if(limit > 0xFFFFF){
   1231c:	81 7d 10 ff ff 0f 00 	cmpl   $0xfffff,0x10(%ebp)
   12323:	76 0f                	jbe    12334 <segment_desc_set+0x36>
        attr|=0x8000;
   12325:	66 81 4d ec 00 80    	orw    $0x8000,-0x14(%ebp)
        limit/=0x1000;
   1232b:	8b 45 10             	mov    0x10(%ebp),%eax
   1232e:	c1 e8 0c             	shr    $0xc,%eax
   12331:	89 45 10             	mov    %eax,0x10(%ebp)
    }
    desc->limit15_0=limit&0xFFFF;
   12334:	8b 45 10             	mov    0x10(%ebp),%eax
   12337:	89 c2                	mov    %eax,%edx
   12339:	8b 45 fc             	mov    -0x4(%ebp),%eax
   1233c:	66 89 10             	mov    %dx,(%eax)
    desc->base15_0=base&0xFFFF;
   1233f:	8b 45 0c             	mov    0xc(%ebp),%eax
   12342:	89 c2                	mov    %eax,%edx
   12344:	8b 45 fc             	mov    -0x4(%ebp),%eax
   12347:	66 89 50 02          	mov    %dx,0x2(%eax)
    desc->base23_16=(base>>16)&0xFF;
   1234b:	8b 45 0c             	mov    0xc(%ebp),%eax
   1234e:	c1 e8 10             	shr    $0x10,%eax
   12351:	89 c2                	mov    %eax,%edx
   12353:	8b 45 fc             	mov    -0x4(%ebp),%eax
   12356:	88 50 04             	mov    %dl,0x4(%eax)
    desc->attr=attr|(((limit>>16)&0xF)<<8);
   12359:	8b 45 10             	mov    0x10(%ebp),%eax
   1235c:	c1 e8 10             	shr    $0x10,%eax
   1235f:	c1 e0 08             	shl    $0x8,%eax
   12362:	66 25 00 0f          	and    $0xf00,%ax
   12366:	66 0b 45 ec          	or     -0x14(%ebp),%ax
   1236a:	89 c2                	mov    %eax,%edx
   1236c:	8b 45 fc             	mov    -0x4(%ebp),%eax
   1236f:	66 89 50 05          	mov    %dx,0x5(%eax)
    desc->base31_24=(base>>24)&0xFF;
   12373:	8b 45 0c             	mov    0xc(%ebp),%eax
   12376:	c1 e8 18             	shr    $0x18,%eax
   12379:	89 c2                	mov    %eax,%edx
   1237b:	8b 45 fc             	mov    -0x4(%ebp),%eax
   1237e:	88 50 07             	mov    %dl,0x7(%eax)

}
   12381:	90                   	nop
   12382:	c9                   	leave  
   12383:	c3                   	ret    

00012384 <init_gdt>:

// 初始化gdt表
void init_gdt(void){
   12384:	55                   	push   %ebp
   12385:	89 e5                	mov    %esp,%ebp
   12387:	83 ec 18             	sub    $0x18,%esp
    for(int i=0;i<GDT_TABLE_SIZE;i++){
   1238a:	c7 45 f4 00 00 00 00 	movl   $0x0,-0xc(%ebp)
   12391:	eb 19                	jmp    123ac <init_gdt+0x28>
        segment_desc_set(i<<3,0,0,0);
   12393:	8b 45 f4             	mov    -0xc(%ebp),%eax
   12396:	c1 e0 03             	shl    $0x3,%eax
   12399:	6a 00                	push   $0x0
   1239b:	6a 00                	push   $0x0
   1239d:	6a 00                	push   $0x0
   1239f:	50                   	push   %eax
   123a0:	e8 59 ff ff ff       	call   122fe <segment_desc_set>
   123a5:	83 c4 10             	add    $0x10,%esp
    for(int i=0;i<GDT_TABLE_SIZE;i++){
   123a8:	83 45 f4 01          	addl   $0x1,-0xc(%ebp)
   123ac:	81 7d f4 ff 00 00 00 	cmpl   $0xff,-0xc(%ebp)
   123b3:	7e de                	jle    12393 <init_gdt+0xf>
    }
    segment_desc_set(KERNEL_SELECTOR_DS,0,0xFFFFFFFF,
   123b5:	68 92 40 00 00       	push   $0x4092
   123ba:	6a ff                	push   $0xffffffff
   123bc:	6a 00                	push   $0x0
   123be:	6a 10                	push   $0x10
   123c0:	e8 39 ff ff ff       	call   122fe <segment_desc_set>
   123c5:	83 c4 10             	add    $0x10,%esp
        SEG_P_PRESENT | SEG_DPL0 | SEG_S_NORMAL | SEG_TYPE_DATA | SEG_TYPE_RW
        | SEG_D
    );
    segment_desc_set(KERNEL_SELECTOR_CS, 0x00000000, 0xFFFFFFFF,
   123c8:	68 9a c0 00 00       	push   $0xc09a
   123cd:	6a ff                	push   $0xffffffff
   123cf:	6a 00                	push   $0x0
   123d1:	6a 08                	push   $0x8
   123d3:	e8 26 ff ff ff       	call   122fe <segment_desc_set>
   123d8:	83 c4 10             	add    $0x10,%esp
        SEG_P_PRESENT | SEG_DPL0 | SEG_S_NORMAL | SEG_TYPE_CODE
        | SEG_TYPE_RW | SEG_D | SEG_G);
    gate_desc_set((gate_desc_t*)(gdt_table+(SELECTOR_SYSCALL >> 3)),
   123db:	ba c7 02 01 00       	mov    $0x102c7,%edx
   123e0:	b8 f8 19 03 00       	mov    $0x319f8,%eax
   123e5:	68 05 ec 00 00       	push   $0xec05
   123ea:	52                   	push   %edx
   123eb:	6a 08                	push   $0x8
   123ed:	50                   	push   %eax
   123ee:	e8 1c 00 00 00       	call   1240f <gate_desc_set>
   123f3:	83 c4 10             	add    $0x10,%esp
        KERNEL_SELECTOR_CS,(uint32_t)exception_handler_syscall,
        GATE_P_PRESENT | GATE_DPL3 | GATE_TYPE_SYSCALL | SYSCALL_PARAM_COUNT
    );
    lgdt((uint32_t)gdt_table,sizeof(gdt_table));
   123f6:	b8 e0 19 03 00       	mov    $0x319e0,%eax
   123fb:	83 ec 08             	sub    $0x8,%esp
   123fe:	68 00 08 00 00       	push   $0x800
   12403:	50                   	push   %eax
   12404:	e8 b3 fe ff ff       	call   122bc <lgdt>
   12409:	83 c4 10             	add    $0x10,%esp
}
   1240c:	90                   	nop
   1240d:	c9                   	leave  
   1240e:	c3                   	ret    

0001240f <gate_desc_set>:

// 设置idt表项
void gate_desc_set(gate_desc_t* desc,uint16_t selector,uint32_t offset,uint16_t attr){
   1240f:	55                   	push   %ebp
   12410:	89 e5                	mov    %esp,%ebp
   12412:	83 ec 08             	sub    $0x8,%esp
   12415:	8b 55 0c             	mov    0xc(%ebp),%edx
   12418:	8b 45 14             	mov    0x14(%ebp),%eax
   1241b:	66 89 55 fc          	mov    %dx,-0x4(%ebp)
   1241f:	66 89 45 f8          	mov    %ax,-0x8(%ebp)
    desc->offset15_0=offset&0xFFFF;
   12423:	8b 45 10             	mov    0x10(%ebp),%eax
   12426:	89 c2                	mov    %eax,%edx
   12428:	8b 45 08             	mov    0x8(%ebp),%eax
   1242b:	66 89 10             	mov    %dx,(%eax)
    desc->selector=selector;
   1242e:	8b 45 08             	mov    0x8(%ebp),%eax
   12431:	0f b7 55 fc          	movzwl -0x4(%ebp),%edx
   12435:	66 89 50 02          	mov    %dx,0x2(%eax)
    desc->attr=attr;
   12439:	8b 45 08             	mov    0x8(%ebp),%eax
   1243c:	0f b7 55 f8          	movzwl -0x8(%ebp),%edx
   12440:	66 89 50 04          	mov    %dx,0x4(%eax)
    desc->offset31_16=(offset>>16)&0xFFFF;
   12444:	8b 45 10             	mov    0x10(%ebp),%eax
   12447:	c1 e8 10             	shr    $0x10,%eax
   1244a:	89 c2                	mov    %eax,%edx
   1244c:	8b 45 08             	mov    0x8(%ebp),%eax
   1244f:	66 89 50 06          	mov    %dx,0x6(%eax)
}
   12453:	90                   	nop
   12454:	c9                   	leave  
   12455:	c3                   	ret    

00012456 <cpu_init>:

/**
 * @brief 初始化mutex锁以及gdt表
 * @return void
*/
void cpu_init(void){
   12456:	55                   	push   %ebp
   12457:	89 e5                	mov    %esp,%ebp
   12459:	83 ec 08             	sub    $0x8,%esp
    mutex_init(&mutex);
   1245c:	83 ec 0c             	sub    $0xc,%esp
   1245f:	68 e0 21 03 00       	push   $0x321e0
   12464:	e8 f9 28 00 00       	call   14d62 <mutex_init>
   12469:	83 c4 10             	add    $0x10,%esp
    init_gdt();
   1246c:	e8 13 ff ff ff       	call   12384 <init_gdt>
}
   12471:	90                   	nop
   12472:	c9                   	leave  
   12473:	c3                   	ret    

00012474 <gdt_alloc_desc>:

/**
 * @brief 分配gdt表项
 * @return 分配成功返回gdt表项的索引，失败返回-1
*/
int gdt_alloc_desc(){
   12474:	55                   	push   %ebp
   12475:	89 e5                	mov    %esp,%ebp
   12477:	83 ec 18             	sub    $0x18,%esp
    mutex_lock(&mutex);
   1247a:	83 ec 0c             	sub    $0xc,%esp
   1247d:	68 e0 21 03 00       	push   $0x321e0
   12482:	e8 09 29 00 00       	call   14d90 <mutex_lock>
   12487:	83 c4 10             	add    $0x10,%esp
    for(int i=1;i<GDT_TABLE_SIZE;i++){
   1248a:	c7 45 f4 01 00 00 00 	movl   $0x1,-0xc(%ebp)
   12491:	eb 36                	jmp    124c9 <gdt_alloc_desc+0x55>
        segment_desc_t* desc=gdt_table+i;
   12493:	8b 45 f4             	mov    -0xc(%ebp),%eax
   12496:	c1 e0 03             	shl    $0x3,%eax
   12499:	05 e0 19 03 00       	add    $0x319e0,%eax
   1249e:	89 45 f0             	mov    %eax,-0x10(%ebp)
        if(desc->attr==0){
   124a1:	8b 45 f0             	mov    -0x10(%ebp),%eax
   124a4:	0f b7 40 05          	movzwl 0x5(%eax),%eax
   124a8:	66 85 c0             	test   %ax,%ax
   124ab:	75 18                	jne    124c5 <gdt_alloc_desc+0x51>
            mutex_unlock(&mutex);
   124ad:	83 ec 0c             	sub    $0xc,%esp
   124b0:	68 e0 21 03 00       	push   $0x321e0
   124b5:	e8 65 29 00 00       	call   14e1f <mutex_unlock>
   124ba:	83 c4 10             	add    $0x10,%esp
            return i*sizeof(segment_desc_t);
   124bd:	8b 45 f4             	mov    -0xc(%ebp),%eax
   124c0:	c1 e0 03             	shl    $0x3,%eax
   124c3:	eb 22                	jmp    124e7 <gdt_alloc_desc+0x73>
    for(int i=1;i<GDT_TABLE_SIZE;i++){
   124c5:	83 45 f4 01          	addl   $0x1,-0xc(%ebp)
   124c9:	81 7d f4 ff 00 00 00 	cmpl   $0xff,-0xc(%ebp)
   124d0:	7e c1                	jle    12493 <gdt_alloc_desc+0x1f>
        }
    }
    mutex_unlock(&mutex);
   124d2:	83 ec 0c             	sub    $0xc,%esp
   124d5:	68 e0 21 03 00       	push   $0x321e0
   124da:	e8 40 29 00 00       	call   14e1f <mutex_unlock>
   124df:	83 c4 10             	add    $0x10,%esp
    return -1;
   124e2:	b8 ff ff ff ff       	mov    $0xffffffff,%eax
}
   124e7:	c9                   	leave  
   124e8:	c3                   	ret    

000124e9 <switch_to_tss>:

void switch_to_tss(int tss_sel){
   124e9:	55                   	push   %ebp
   124ea:	89 e5                	mov    %esp,%ebp
    far_jump(tss_sel,0);
   124ec:	8b 45 08             	mov    0x8(%ebp),%eax
   124ef:	6a 00                	push   $0x0
   124f1:	50                   	push   %eax
   124f2:	e8 ed fd ff ff       	call   122e4 <far_jump>
   124f7:	83 c4 08             	add    $0x8,%esp
}
   124fa:	90                   	nop
   124fb:	c9                   	leave  
   124fc:	c3                   	ret    

000124fd <gdt_free_sel>:

void gdt_free_sel(int sel){
   124fd:	55                   	push   %ebp
   124fe:	89 e5                	mov    %esp,%ebp
   12500:	83 ec 08             	sub    $0x8,%esp
    mutex_lock(&mutex);
   12503:	83 ec 0c             	sub    $0xc,%esp
   12506:	68 e0 21 03 00       	push   $0x321e0
   1250b:	e8 80 28 00 00       	call   14d90 <mutex_lock>
   12510:	83 c4 10             	add    $0x10,%esp
    gdt_table[sel/sizeof(segment_desc_set)].attr=0;
   12513:	8b 45 08             	mov    0x8(%ebp),%eax
   12516:	66 c7 04 c5 e5 19 03 	movw   $0x0,0x319e5(,%eax,8)
   1251d:	00 00 00 
    mutex_unlock(&mutex);
   12520:	83 ec 0c             	sub    $0xc,%esp
   12523:	68 e0 21 03 00       	push   $0x321e0
   12528:	e8 f2 28 00 00       	call   14e1f <mutex_unlock>
   1252d:	83 c4 10             	add    $0x10,%esp
   12530:	90                   	nop
   12531:	c9                   	leave  
   12532:	c3                   	ret    

00012533 <cli>:
static inline void cli(void){
   12533:	55                   	push   %ebp
   12534:	89 e5                	mov    %esp,%ebp
    __asm__ __volatile__("cli");
   12536:	fa                   	cli    
}
   12537:	90                   	nop
   12538:	5d                   	pop    %ebp
   12539:	c3                   	ret    

0001253a <sti>:
static inline void sti(void){
   1253a:	55                   	push   %ebp
   1253b:	89 e5                	mov    %esp,%ebp
    __asm__ __volatile__("sti");
   1253d:	fb                   	sti    
}
   1253e:	90                   	nop
   1253f:	5d                   	pop    %ebp
   12540:	c3                   	ret    

00012541 <inb>:
static inline uint8_t inb(uint16_t port){
   12541:	55                   	push   %ebp
   12542:	89 e5                	mov    %esp,%ebp
   12544:	83 ec 14             	sub    $0x14,%esp
   12547:	8b 45 08             	mov    0x8(%ebp),%eax
   1254a:	66 89 45 ec          	mov    %ax,-0x14(%ebp)
    __asm__ __volatile__(
   1254e:	0f b7 45 ec          	movzwl -0x14(%ebp),%eax
   12552:	89 c2                	mov    %eax,%edx
   12554:	ec                   	in     (%dx),%al
   12555:	88 45 ff             	mov    %al,-0x1(%ebp)
    return rv;
   12558:	0f b6 45 ff          	movzbl -0x1(%ebp),%eax
}
   1255c:	c9                   	leave  
   1255d:	c3                   	ret    

0001255e <outb>:
static inline void outb(uint16_t port,uint8_t data){
   1255e:	55                   	push   %ebp
   1255f:	89 e5                	mov    %esp,%ebp
   12561:	83 ec 08             	sub    $0x8,%esp
   12564:	8b 55 08             	mov    0x8(%ebp),%edx
   12567:	8b 45 0c             	mov    0xc(%ebp),%eax
   1256a:	66 89 55 fc          	mov    %dx,-0x4(%ebp)
   1256e:	88 45 f8             	mov    %al,-0x8(%ebp)
    __asm__ __volatile(
   12571:	0f b7 55 fc          	movzwl -0x4(%ebp),%edx
   12575:	0f b6 45 f8          	movzbl -0x8(%ebp),%eax
   12579:	ee                   	out    %al,(%dx)
}
   1257a:	90                   	nop
   1257b:	c9                   	leave  
   1257c:	c3                   	ret    

0001257d <lidt>:
static inline void lidt(uint32_t start,uint32_t size){
   1257d:	55                   	push   %ebp
   1257e:	89 e5                	mov    %esp,%ebp
   12580:	83 ec 10             	sub    $0x10,%esp
    idt.start31_16=start>>16;
   12583:	8b 45 08             	mov    0x8(%ebp),%eax
   12586:	c1 e8 10             	shr    $0x10,%eax
   12589:	66 89 45 fe          	mov    %ax,-0x2(%ebp)
    idt.start15_0=start&0xFFFF;
   1258d:	8b 45 08             	mov    0x8(%ebp),%eax
   12590:	66 89 45 fc          	mov    %ax,-0x4(%ebp)
    idt.limit=size-1;
   12594:	8b 45 0c             	mov    0xc(%ebp),%eax
   12597:	83 e8 01             	sub    $0x1,%eax
   1259a:	66 89 45 fa          	mov    %ax,-0x6(%ebp)
    __asm__ __volatile__(
   1259e:	0f 01 5d fa          	lidtl  -0x6(%ebp)
}
   125a2:	90                   	nop
   125a3:	c9                   	leave  
   125a4:	c3                   	ret    

000125a5 <hlt>:
static inline void hlt(void){
   125a5:	55                   	push   %ebp
   125a6:	89 e5                	mov    %esp,%ebp
    __asm__ __volatile("hlt");
   125a8:	f4                   	hlt    
}
   125a9:	90                   	nop
   125aa:	5d                   	pop    %ebp
   125ab:	c3                   	ret    

000125ac <read_eflags>:
static inline uint32_t read_eflags(void){
   125ac:	55                   	push   %ebp
   125ad:	89 e5                	mov    %esp,%ebp
   125af:	83 ec 10             	sub    $0x10,%esp
    __asm__ __volatile__(
   125b2:	9c                   	pushf  
   125b3:	58                   	pop    %eax
   125b4:	89 45 fc             	mov    %eax,-0x4(%ebp)
    return eflags;
   125b7:	8b 45 fc             	mov    -0x4(%ebp),%eax
}
   125ba:	c9                   	leave  
   125bb:	c3                   	ret    

000125bc <write_eflags>:
static inline void write_eflags(uint32_t eflags){
   125bc:	55                   	push   %ebp
   125bd:	89 e5                	mov    %esp,%ebp
    __asm__ __volatile__(
   125bf:	8b 45 08             	mov    0x8(%ebp),%eax
   125c2:	50                   	push   %eax
   125c3:	9d                   	popf   
}
   125c4:	90                   	nop
   125c5:	5d                   	pop    %ebp
   125c6:	c3                   	ret    

000125c7 <read_cr2>:

/**
 * @brief 读取cr2寄存器
 * @return cr2寄存器的值
 */
static inline uint32_t read_cr2(void){
   125c7:	55                   	push   %ebp
   125c8:	89 e5                	mov    %esp,%ebp
   125ca:	83 ec 10             	sub    $0x10,%esp
    uint32_t cr2;
    __asm__ __volatile__(
   125cd:	0f 20 e0             	mov    %cr4,%eax
   125d0:	89 45 fc             	mov    %eax,-0x4(%ebp)
        "mov %%cr4,%[v]"
        :[v]"=r"(cr2)
        :
    );
    return cr2;
   125d3:	8b 45 fc             	mov    -0x4(%ebp),%eax
}
   125d6:	c9                   	leave  
   125d7:	c3                   	ret    

000125d8 <init_pic>:
#include "cpu/irq.h"

// 初始化8259，开启中断
static void init_pic(void){
   125d8:	55                   	push   %ebp
   125d9:	89 e5                	mov    %esp,%ebp
	outb(PIC0_ICW1, PIC_ICW1_ALWAYS_1 | PIC_ICW1_ICW4);
   125db:	6a 11                	push   $0x11
   125dd:	6a 20                	push   $0x20
   125df:	e8 7a ff ff ff       	call   1255e <outb>
   125e4:	83 c4 08             	add    $0x8,%esp
	outb(PIC0_ICW2, IRQ_PIC_START);
   125e7:	6a 20                	push   $0x20
   125e9:	6a 21                	push   $0x21
   125eb:	e8 6e ff ff ff       	call   1255e <outb>
   125f0:	83 c4 08             	add    $0x8,%esp
	outb(PIC0_ICW3, 1 << 2);
   125f3:	6a 04                	push   $0x4
   125f5:	6a 21                	push   $0x21
   125f7:	e8 62 ff ff ff       	call   1255e <outb>
   125fc:	83 c4 08             	add    $0x8,%esp
	outb(PIC0_ICW4, PIC_ICW4_8086);
   125ff:	6a 01                	push   $0x1
   12601:	6a 21                	push   $0x21
   12603:	e8 56 ff ff ff       	call   1255e <outb>
   12608:	83 c4 08             	add    $0x8,%esp

	outb(PIC1_ICW1, PIC_ICW1_ALWAYS_1 | PIC_ICW1_ICW4);
   1260b:	6a 11                	push   $0x11
   1260d:	68 a0 00 00 00       	push   $0xa0
   12612:	e8 47 ff ff ff       	call   1255e <outb>
   12617:	83 c4 08             	add    $0x8,%esp
	outb(PIC1_ICW2, IRQ_PIC_START+8);
   1261a:	6a 28                	push   $0x28
   1261c:	68 a1 00 00 00       	push   $0xa1
   12621:	e8 38 ff ff ff       	call   1255e <outb>
   12626:	83 c4 08             	add    $0x8,%esp
	outb(PIC1_ICW3, 2);
   12629:	6a 02                	push   $0x2
   1262b:	68 a1 00 00 00       	push   $0xa1
   12630:	e8 29 ff ff ff       	call   1255e <outb>
   12635:	83 c4 08             	add    $0x8,%esp
	outb(PIC1_ICW4, PIC_ICW4_8086);
   12638:	6a 01                	push   $0x1
   1263a:	68 a1 00 00 00       	push   $0xa1
   1263f:	e8 1a ff ff ff       	call   1255e <outb>
   12644:	83 c4 08             	add    $0x8,%esp

	outb(PIC0_IMR,0xFF & ~(1 << 2));
   12647:	68 fb 00 00 00       	push   $0xfb
   1264c:	6a 21                	push   $0x21
   1264e:	e8 0b ff ff ff       	call   1255e <outb>
   12653:	83 c4 08             	add    $0x8,%esp
	outb(PIC1_IMR, 0xFF);
   12656:	68 ff 00 00 00       	push   $0xff
   1265b:	68 a1 00 00 00       	push   $0xa1
   12660:	e8 f9 fe ff ff       	call   1255e <outb>
   12665:	83 c4 08             	add    $0x8,%esp
}
   12668:	90                   	nop
   12669:	c9                   	leave  
   1266a:	c3                   	ret    

0001266b <irq_disable_global>:

// 关中断
void irq_disable_global(void){
   1266b:	55                   	push   %ebp
   1266c:	89 e5                	mov    %esp,%ebp
	cli();
   1266e:	e8 c0 fe ff ff       	call   12533 <cli>
}
   12673:	90                   	nop
   12674:	5d                   	pop    %ebp
   12675:	c3                   	ret    

00012676 <irq_enable_global>:

// 开中断
void irq_enable_global(void){
   12676:	55                   	push   %ebp
   12677:	89 e5                	mov    %esp,%ebp
	sti();
   12679:	e8 bc fe ff ff       	call   1253a <sti>
}
   1267e:	90                   	nop
   1267f:	5d                   	pop    %ebp
   12680:	c3                   	ret    

00012681 <irq_enable>:

// 开启特定中断
void irq_enable(int irq_num){
   12681:	55                   	push   %ebp
   12682:	89 e5                	mov    %esp,%ebp
   12684:	53                   	push   %ebx
   12685:	83 ec 10             	sub    $0x10,%esp
	if(irq_num < IRQ_PIC_START){
   12688:	83 7d 08 1f          	cmpl   $0x1f,0x8(%ebp)
   1268c:	7e 78                	jle    12706 <irq_enable+0x85>
		return;
	}
	irq_num-=IRQ_PIC_START;
   1268e:	83 6d 08 20          	subl   $0x20,0x8(%ebp)
	if(irq_num<8){
   12692:	83 7d 08 07          	cmpl   $0x7,0x8(%ebp)
   12696:	7f 32                	jg     126ca <irq_enable+0x49>
		uint8_t mask=inb(PIC0_IMR) & ~(1<<irq_num);
   12698:	6a 21                	push   $0x21
   1269a:	e8 a2 fe ff ff       	call   12541 <inb>
   1269f:	83 c4 04             	add    $0x4,%esp
   126a2:	89 c2                	mov    %eax,%edx
   126a4:	8b 45 08             	mov    0x8(%ebp),%eax
   126a7:	bb 01 00 00 00       	mov    $0x1,%ebx
   126ac:	89 c1                	mov    %eax,%ecx
   126ae:	d3 e3                	shl    %cl,%ebx
   126b0:	89 d8                	mov    %ebx,%eax
   126b2:	f7 d0                	not    %eax
   126b4:	21 d0                	and    %edx,%eax
   126b6:	88 45 fa             	mov    %al,-0x6(%ebp)
		outb(PIC0_IMR,mask);
   126b9:	0f b6 45 fa          	movzbl -0x6(%ebp),%eax
   126bd:	50                   	push   %eax
   126be:	6a 21                	push   $0x21
   126c0:	e8 99 fe ff ff       	call   1255e <outb>
   126c5:	83 c4 08             	add    $0x8,%esp
   126c8:	eb 3d                	jmp    12707 <irq_enable+0x86>
	}
	else{
		irq_num-=8;
   126ca:	83 6d 08 08          	subl   $0x8,0x8(%ebp)
		uint8_t mask=inb(PIC1_IMR) & ~(1<<irq_num);
   126ce:	68 a1 00 00 00       	push   $0xa1
   126d3:	e8 69 fe ff ff       	call   12541 <inb>
   126d8:	83 c4 04             	add    $0x4,%esp
   126db:	89 c2                	mov    %eax,%edx
   126dd:	8b 45 08             	mov    0x8(%ebp),%eax
   126e0:	bb 01 00 00 00       	mov    $0x1,%ebx
   126e5:	89 c1                	mov    %eax,%ecx
   126e7:	d3 e3                	shl    %cl,%ebx
   126e9:	89 d8                	mov    %ebx,%eax
   126eb:	f7 d0                	not    %eax
   126ed:	21 d0                	and    %edx,%eax
   126ef:	88 45 fb             	mov    %al,-0x5(%ebp)
		outb(PIC1_IMR,mask);
   126f2:	0f b6 45 fb          	movzbl -0x5(%ebp),%eax
   126f6:	50                   	push   %eax
   126f7:	68 a1 00 00 00       	push   $0xa1
   126fc:	e8 5d fe ff ff       	call   1255e <outb>
   12701:	83 c4 08             	add    $0x8,%esp
   12704:	eb 01                	jmp    12707 <irq_enable+0x86>
		return;
   12706:	90                   	nop
	}
}
   12707:	8b 5d fc             	mov    -0x4(%ebp),%ebx
   1270a:	c9                   	leave  
   1270b:	c3                   	ret    

0001270c <irq_disable>:

// 关闭特定中断
void irq_disable(int irq_num){
   1270c:	55                   	push   %ebp
   1270d:	89 e5                	mov    %esp,%ebp
   1270f:	53                   	push   %ebx
   12710:	83 ec 10             	sub    $0x10,%esp
	if(irq_num < IRQ_PIC_START){
   12713:	83 7d 08 1f          	cmpl   $0x1f,0x8(%ebp)
   12717:	7e 74                	jle    1278d <irq_disable+0x81>
		return;
	}
	irq_num-=IRQ_PIC_START;
   12719:	83 6d 08 20          	subl   $0x20,0x8(%ebp)
	if(irq_num<8){
   1271d:	83 7d 08 07          	cmpl   $0x7,0x8(%ebp)
   12721:	7f 30                	jg     12753 <irq_disable+0x47>
		uint8_t mask=inb(PIC0_IMR) | (1<<irq_num);
   12723:	6a 21                	push   $0x21
   12725:	e8 17 fe ff ff       	call   12541 <inb>
   1272a:	83 c4 04             	add    $0x4,%esp
   1272d:	89 c3                	mov    %eax,%ebx
   1272f:	8b 45 08             	mov    0x8(%ebp),%eax
   12732:	ba 01 00 00 00       	mov    $0x1,%edx
   12737:	89 c1                	mov    %eax,%ecx
   12739:	d3 e2                	shl    %cl,%edx
   1273b:	89 d0                	mov    %edx,%eax
   1273d:	09 d8                	or     %ebx,%eax
   1273f:	88 45 fa             	mov    %al,-0x6(%ebp)
		outb(PIC0_IMR,mask);
   12742:	0f b6 45 fa          	movzbl -0x6(%ebp),%eax
   12746:	50                   	push   %eax
   12747:	6a 21                	push   $0x21
   12749:	e8 10 fe ff ff       	call   1255e <outb>
   1274e:	83 c4 08             	add    $0x8,%esp
   12751:	eb 3b                	jmp    1278e <irq_disable+0x82>
	}
	else{
		irq_num-=8;
   12753:	83 6d 08 08          	subl   $0x8,0x8(%ebp)
		uint8_t mask=inb(PIC1_IMR) | (1<<irq_num);
   12757:	68 a1 00 00 00       	push   $0xa1
   1275c:	e8 e0 fd ff ff       	call   12541 <inb>
   12761:	83 c4 04             	add    $0x4,%esp
   12764:	89 c3                	mov    %eax,%ebx
   12766:	8b 45 08             	mov    0x8(%ebp),%eax
   12769:	ba 01 00 00 00       	mov    $0x1,%edx
   1276e:	89 c1                	mov    %eax,%ecx
   12770:	d3 e2                	shl    %cl,%edx
   12772:	89 d0                	mov    %edx,%eax
   12774:	09 d8                	or     %ebx,%eax
   12776:	88 45 fb             	mov    %al,-0x5(%ebp)
		outb(PIC1_IMR,mask);
   12779:	0f b6 45 fb          	movzbl -0x5(%ebp),%eax
   1277d:	50                   	push   %eax
   1277e:	68 a1 00 00 00       	push   $0xa1
   12783:	e8 d6 fd ff ff       	call   1255e <outb>
   12788:	83 c4 08             	add    $0x8,%esp
   1278b:	eb 01                	jmp    1278e <irq_disable+0x82>
		return;
   1278d:	90                   	nop
	}
}
   1278e:	8b 5d fc             	mov    -0x4(%ebp),%ebx
   12791:	c9                   	leave  
   12792:	c3                   	ret    

00012793 <irq_init>:

// 定义中断向量表
static gate_desc_t idt_table[IDT_TABLE_NR];
void irq_init(void){
   12793:	55                   	push   %ebp
   12794:	89 e5                	mov    %esp,%ebp
   12796:	83 ec 18             	sub    $0x18,%esp
    for(uint32_t i=0;i<IDT_TABLE_NR;i++){
   12799:	c7 45 f4 00 00 00 00 	movl   $0x0,-0xc(%ebp)
   127a0:	eb 25                	jmp    127c7 <irq_init+0x34>
        gate_desc_set(idt_table+i,KERNEL_SELECTOR_CS,(uint32_t)exception_handler_unknown,
   127a2:	ba 2b 00 01 00       	mov    $0x1002b,%edx
   127a7:	8b 45 f4             	mov    -0xc(%ebp),%eax
   127aa:	c1 e0 03             	shl    $0x3,%eax
   127ad:	05 00 22 03 00       	add    $0x32200,%eax
   127b2:	68 00 8e 00 00       	push   $0x8e00
   127b7:	52                   	push   %edx
   127b8:	6a 08                	push   $0x8
   127ba:	50                   	push   %eax
   127bb:	e8 4f fc ff ff       	call   1240f <gate_desc_set>
   127c0:	83 c4 10             	add    $0x10,%esp
    for(uint32_t i=0;i<IDT_TABLE_NR;i++){
   127c3:	83 45 f4 01          	addl   $0x1,-0xc(%ebp)
   127c7:	83 7d f4 7f          	cmpl   $0x7f,-0xc(%ebp)
   127cb:	76 d5                	jbe    127a2 <irq_init+0xf>
        GATE_P_PRESENT | GATE_DPL0 | GATE_TYPE_INT);
    }

    
    irq_install(IRQ0_DE, (irq_handler_t)exception_handler_divider);
   127cd:	83 ec 08             	sub    $0x8,%esp
   127d0:	68 4a 00 01 00       	push   $0x1004a
   127d5:	6a 00                	push   $0x0
   127d7:	e8 65 01 00 00       	call   12941 <irq_install>
   127dc:	83 c4 10             	add    $0x10,%esp
	irq_install(IRQ1_DB, (irq_handler_t)exception_handler_Debug);
   127df:	83 ec 08             	sub    $0x8,%esp
   127e2:	68 69 00 01 00       	push   $0x10069
   127e7:	6a 01                	push   $0x1
   127e9:	e8 53 01 00 00       	call   12941 <irq_install>
   127ee:	83 c4 10             	add    $0x10,%esp
	irq_install(IRQ2_NMI, (irq_handler_t)exception_handler_NMI);
   127f1:	83 ec 08             	sub    $0x8,%esp
   127f4:	68 88 00 01 00       	push   $0x10088
   127f9:	6a 02                	push   $0x2
   127fb:	e8 41 01 00 00       	call   12941 <irq_install>
   12800:	83 c4 10             	add    $0x10,%esp
	irq_install(IRQ3_BP, (irq_handler_t)exception_handler_breakpoint);
   12803:	83 ec 08             	sub    $0x8,%esp
   12806:	68 a7 00 01 00       	push   $0x100a7
   1280b:	6a 03                	push   $0x3
   1280d:	e8 2f 01 00 00       	call   12941 <irq_install>
   12812:	83 c4 10             	add    $0x10,%esp
	irq_install(IRQ4_OF, (irq_handler_t)exception_handler_overflow);
   12815:	83 ec 08             	sub    $0x8,%esp
   12818:	68 c6 00 01 00       	push   $0x100c6
   1281d:	6a 04                	push   $0x4
   1281f:	e8 1d 01 00 00       	call   12941 <irq_install>
   12824:	83 c4 10             	add    $0x10,%esp
	irq_install(IRQ5_BR, (irq_handler_t)exception_handler_bound_range);
   12827:	83 ec 08             	sub    $0x8,%esp
   1282a:	68 e5 00 01 00       	push   $0x100e5
   1282f:	6a 05                	push   $0x5
   12831:	e8 0b 01 00 00       	call   12941 <irq_install>
   12836:	83 c4 10             	add    $0x10,%esp
	irq_install(IRQ6_UD, (irq_handler_t)exception_handler_invalid_opcode);
   12839:	83 ec 08             	sub    $0x8,%esp
   1283c:	68 04 01 01 00       	push   $0x10104
   12841:	6a 06                	push   $0x6
   12843:	e8 f9 00 00 00       	call   12941 <irq_install>
   12848:	83 c4 10             	add    $0x10,%esp
	irq_install(IRQ7_NM, (irq_handler_t)exception_handler_device_unavailable);
   1284b:	83 ec 08             	sub    $0x8,%esp
   1284e:	68 23 01 01 00       	push   $0x10123
   12853:	6a 07                	push   $0x7
   12855:	e8 e7 00 00 00       	call   12941 <irq_install>
   1285a:	83 c4 10             	add    $0x10,%esp
	irq_install(IRQ8_DF, (irq_handler_t)exception_handler_double_fault);
   1285d:	83 ec 08             	sub    $0x8,%esp
   12860:	68 42 01 01 00       	push   $0x10142
   12865:	6a 08                	push   $0x8
   12867:	e8 d5 00 00 00       	call   12941 <irq_install>
   1286c:	83 c4 10             	add    $0x10,%esp
	irq_install(IRQ10_TS, (irq_handler_t)exception_handler_invalid_tss);
   1286f:	83 ec 08             	sub    $0x8,%esp
   12872:	68 5f 01 01 00       	push   $0x1015f
   12877:	6a 0a                	push   $0xa
   12879:	e8 c3 00 00 00       	call   12941 <irq_install>
   1287e:	83 c4 10             	add    $0x10,%esp
	irq_install(IRQ11_NP, (irq_handler_t)exception_handler_segment_not_present);
   12881:	83 ec 08             	sub    $0x8,%esp
   12884:	68 7c 01 01 00       	push   $0x1017c
   12889:	6a 0b                	push   $0xb
   1288b:	e8 b1 00 00 00       	call   12941 <irq_install>
   12890:	83 c4 10             	add    $0x10,%esp
	irq_install(IRQ12_SS, (irq_handler_t)exception_handler_stack_segment_fault);
   12893:	83 ec 08             	sub    $0x8,%esp
   12896:	68 99 01 01 00       	push   $0x10199
   1289b:	6a 0c                	push   $0xc
   1289d:	e8 9f 00 00 00       	call   12941 <irq_install>
   128a2:	83 c4 10             	add    $0x10,%esp
	irq_install(IRQ13_GP, (irq_handler_t)exception_handler_general_protection);
   128a5:	83 ec 08             	sub    $0x8,%esp
   128a8:	68 b6 01 01 00       	push   $0x101b6
   128ad:	6a 0d                	push   $0xd
   128af:	e8 8d 00 00 00       	call   12941 <irq_install>
   128b4:	83 c4 10             	add    $0x10,%esp
	irq_install(IRQ14_PF, (irq_handler_t)exception_handler_page_fault);
   128b7:	83 ec 08             	sub    $0x8,%esp
   128ba:	68 d3 01 01 00       	push   $0x101d3
   128bf:	6a 0e                	push   $0xe
   128c1:	e8 7b 00 00 00       	call   12941 <irq_install>
   128c6:	83 c4 10             	add    $0x10,%esp
	irq_install(IRQ16_MF, (irq_handler_t)exception_handler_fpu_error);
   128c9:	83 ec 08             	sub    $0x8,%esp
   128cc:	68 f0 01 01 00       	push   $0x101f0
   128d1:	6a 10                	push   $0x10
   128d3:	e8 69 00 00 00       	call   12941 <irq_install>
   128d8:	83 c4 10             	add    $0x10,%esp
	irq_install(IRQ17_AC, (irq_handler_t)exception_handler_alignment_check);
   128db:	83 ec 08             	sub    $0x8,%esp
   128de:	68 0f 02 01 00       	push   $0x1020f
   128e3:	6a 11                	push   $0x11
   128e5:	e8 57 00 00 00       	call   12941 <irq_install>
   128ea:	83 c4 10             	add    $0x10,%esp
	irq_install(IRQ18_MC, (irq_handler_t)exception_handler_machine_check);
   128ed:	83 ec 08             	sub    $0x8,%esp
   128f0:	68 2c 02 01 00       	push   $0x1022c
   128f5:	6a 12                	push   $0x12
   128f7:	e8 45 00 00 00       	call   12941 <irq_install>
   128fc:	83 c4 10             	add    $0x10,%esp
	irq_install(IRQ19_XM, (irq_handler_t)exception_handler_smd_exception);
   128ff:	83 ec 08             	sub    $0x8,%esp
   12902:	68 4b 02 01 00       	push   $0x1024b
   12907:	6a 13                	push   $0x13
   12909:	e8 33 00 00 00       	call   12941 <irq_install>
   1290e:	83 c4 10             	add    $0x10,%esp
	irq_install(IRQ20_VE, (irq_handler_t)exception_handler_virtual_exception);
   12911:	83 ec 08             	sub    $0x8,%esp
   12914:	68 6a 02 01 00       	push   $0x1026a
   12919:	6a 14                	push   $0x14
   1291b:	e8 21 00 00 00       	call   12941 <irq_install>
   12920:	83 c4 10             	add    $0x10,%esp

    lidt((uint32_t)idt_table,sizeof(idt_table));
   12923:	b8 00 22 03 00       	mov    $0x32200,%eax
   12928:	83 ec 08             	sub    $0x8,%esp
   1292b:	68 00 04 00 00       	push   $0x400
   12930:	50                   	push   %eax
   12931:	e8 47 fc ff ff       	call   1257d <lidt>
   12936:	83 c4 10             	add    $0x10,%esp

	// 初始化8259用于开启中断
	init_pic();
   12939:	e8 9a fc ff ff       	call   125d8 <init_pic>

}
   1293e:	90                   	nop
   1293f:	c9                   	leave  
   12940:	c3                   	ret    

00012941 <irq_install>:

// 将对应的中断添加到idt表中
int irq_install(int irq_num,irq_handler_t handler){
   12941:	55                   	push   %ebp
   12942:	89 e5                	mov    %esp,%ebp
   12944:	83 ec 08             	sub    $0x8,%esp
    if(irq_num >= IDT_TABLE_NR){
   12947:	83 7d 08 7f          	cmpl   $0x7f,0x8(%ebp)
   1294b:	7e 07                	jle    12954 <irq_install+0x13>
        return -1;
   1294d:	b8 ff ff ff ff       	mov    $0xffffffff,%eax
   12952:	eb 25                	jmp    12979 <irq_install+0x38>
    }
    gate_desc_set(idt_table+irq_num,KERNEL_SELECTOR_CS,(uint32_t)handler,
   12954:	8b 45 0c             	mov    0xc(%ebp),%eax
   12957:	8b 55 08             	mov    0x8(%ebp),%edx
   1295a:	c1 e2 03             	shl    $0x3,%edx
   1295d:	81 c2 00 22 03 00    	add    $0x32200,%edx
   12963:	68 00 8e 00 00       	push   $0x8e00
   12968:	50                   	push   %eax
   12969:	6a 08                	push   $0x8
   1296b:	52                   	push   %edx
   1296c:	e8 9e fa ff ff       	call   1240f <gate_desc_set>
   12971:	83 c4 10             	add    $0x10,%esp
     GATE_P_PRESENT | GATE_DPL0 | GATE_TYPE_INT);
    return 0;
   12974:	b8 00 00 00 00       	mov    $0x0,%eax
}
   12979:	c9                   	leave  
   1297a:	c3                   	ret    

0001297b <dump_core_regs>:


static void dump_core_regs(exception_frame_t*frame){
   1297b:	55                   	push   %ebp
   1297c:	89 e5                	mov    %esp,%ebp
   1297e:	57                   	push   %edi
   1297f:	56                   	push   %esi
   12980:	53                   	push   %ebx
   12981:	83 ec 2c             	sub    $0x2c,%esp
	log_printf("IRQ: %d, error code: %d",frame->num,frame->error_code);
   12984:	8b 45 08             	mov    0x8(%ebp),%eax
   12987:	8b 50 34             	mov    0x34(%eax),%edx
   1298a:	8b 45 08             	mov    0x8(%ebp),%eax
   1298d:	8b 40 30             	mov    0x30(%eax),%eax
   12990:	83 ec 04             	sub    $0x4,%esp
   12993:	52                   	push   %edx
   12994:	50                   	push   %eax
   12995:	68 a0 5f 01 00       	push   $0x15fa0
   1299a:	e8 de 30 00 00       	call   15a7d <log_printf>
   1299f:	83 c4 10             	add    $0x10,%esp
	uint32_t ss,esp;
	if(frame->cs & 0x3){
   129a2:	8b 45 08             	mov    0x8(%ebp),%eax
   129a5:	8b 40 3c             	mov    0x3c(%eax),%eax
   129a8:	83 e0 03             	and    $0x3,%eax
   129ab:	85 c0                	test   %eax,%eax
   129ad:	74 14                	je     129c3 <dump_core_regs+0x48>
		ss=frame->ss3;
   129af:	8b 45 08             	mov    0x8(%ebp),%eax
   129b2:	8b 40 48             	mov    0x48(%eax),%eax
   129b5:	89 45 e4             	mov    %eax,-0x1c(%ebp)
		esp=frame->esp3;
   129b8:	8b 45 08             	mov    0x8(%ebp),%eax
   129bb:	8b 40 44             	mov    0x44(%eax),%eax
   129be:	89 45 e0             	mov    %eax,-0x20(%ebp)
   129c1:	eb 12                	jmp    129d5 <dump_core_regs+0x5a>
	}else{
		ss=frame->ds;
   129c3:	8b 45 08             	mov    0x8(%ebp),%eax
   129c6:	8b 40 0c             	mov    0xc(%eax),%eax
   129c9:	89 45 e4             	mov    %eax,-0x1c(%ebp)
		esp=frame->esp;
   129cc:	8b 45 08             	mov    0x8(%ebp),%eax
   129cf:	8b 40 1c             	mov    0x1c(%eax),%eax
   129d2:	89 45 e0             	mov    %eax,-0x20(%ebp)
	}
	log_printf("CS: %d\nDS: %d\nES: %d\nSS: %d\nFS: %d\nGS: %d",
   129d5:	8b 45 08             	mov    0x8(%ebp),%eax
   129d8:	8b 18                	mov    (%eax),%ebx
   129da:	8b 45 08             	mov    0x8(%ebp),%eax
   129dd:	8b 48 08             	mov    0x8(%eax),%ecx
   129e0:	8b 45 08             	mov    0x8(%ebp),%eax
   129e3:	8b 50 0c             	mov    0xc(%eax),%edx
   129e6:	8b 45 08             	mov    0x8(%ebp),%eax
   129e9:	8b 40 3c             	mov    0x3c(%eax),%eax
   129ec:	83 ec 08             	sub    $0x8,%esp
   129ef:	53                   	push   %ebx
   129f0:	ff 75 e4             	pushl  -0x1c(%ebp)
   129f3:	51                   	push   %ecx
   129f4:	52                   	push   %edx
   129f5:	50                   	push   %eax
   129f6:	68 b8 5f 01 00       	push   $0x15fb8
   129fb:	e8 7d 30 00 00       	call   15a7d <log_printf>
   12a00:	83 c4 20             	add    $0x20,%esp
		frame->cs,frame->ds,frame->es,ss,frame->gs
	);
	log_printf("EAX: 0x%x\nEBX: 0x%x\nECX: 0x%x\nEDX: 0x%x\nEDI: 0x%x\nESI: 0x%x\n"
   12a03:	8b 45 08             	mov    0x8(%ebp),%eax
   12a06:	8b 40 18             	mov    0x18(%eax),%eax
   12a09:	89 45 d4             	mov    %eax,-0x2c(%ebp)
   12a0c:	8b 45 08             	mov    0x8(%ebp),%eax
   12a0f:	8b 78 14             	mov    0x14(%eax),%edi
   12a12:	8b 45 08             	mov    0x8(%ebp),%eax
   12a15:	8b 70 10             	mov    0x10(%eax),%esi
   12a18:	8b 45 08             	mov    0x8(%ebp),%eax
   12a1b:	8b 58 24             	mov    0x24(%eax),%ebx
   12a1e:	8b 45 08             	mov    0x8(%ebp),%eax
   12a21:	8b 48 28             	mov    0x28(%eax),%ecx
   12a24:	8b 45 08             	mov    0x8(%ebp),%eax
   12a27:	8b 50 20             	mov    0x20(%eax),%edx
   12a2a:	8b 45 08             	mov    0x8(%ebp),%eax
   12a2d:	8b 40 2c             	mov    0x2c(%eax),%eax
   12a30:	83 ec 0c             	sub    $0xc,%esp
   12a33:	ff 75 e0             	pushl  -0x20(%ebp)
   12a36:	ff 75 d4             	pushl  -0x2c(%ebp)
   12a39:	57                   	push   %edi
   12a3a:	56                   	push   %esi
   12a3b:	53                   	push   %ebx
   12a3c:	51                   	push   %ecx
   12a3d:	52                   	push   %edx
   12a3e:	50                   	push   %eax
   12a3f:	68 e4 5f 01 00       	push   $0x15fe4
   12a44:	e8 34 30 00 00       	call   15a7d <log_printf>
   12a49:	83 c4 30             	add    $0x30,%esp
	"EBP: 0x%x\nESP: 0x%x",
		frame->eax,frame->ebx,frame->ecx,frame->edx,
		frame->edi,frame->esi,frame->ebp,esp
	);
	log_printf("EIP: 0x%x\nEFLAGS:0x%x\n",frame->eip,frame->eflags);
